
[RTOS]Queue.elf:     file format elf32-littlearm

Sections:
Idx Name          Size      VMA       LMA       File off  Algn
  0 .isr_vector   0000010c  08000000  08000000  00010000  2**0
                  CONTENTS, ALLOC, LOAD, READONLY, DATA
  1 .text         000050d0  08000110  08000110  00010110  2**4
                  CONTENTS, ALLOC, LOAD, READONLY, CODE
  2 .rodata       00000294  080051e0  080051e0  000151e0  2**2
                  CONTENTS, ALLOC, LOAD, READONLY, DATA
  3 .ARM.extab    00000000  08005474  08005474  0002007c  2**0
                  CONTENTS
  4 .ARM          00000000  08005474  08005474  0002007c  2**0
                  CONTENTS
  5 .preinit_array 00000000  08005474  08005474  0002007c  2**0
                  CONTENTS, ALLOC, LOAD, DATA
  6 .init_array   00000004  08005474  08005474  00015474  2**2
                  CONTENTS, ALLOC, LOAD, DATA
  7 .fini_array   00000004  08005478  08005478  00015478  2**2
                  CONTENTS, ALLOC, LOAD, DATA
  8 .data         0000007c  20000000  0800547c  00020000  2**2
                  CONTENTS, ALLOC, LOAD, DATA
  9 .bss          00001d38  2000007c  080054f8  0002007c  2**2
                  ALLOC
 10 ._user_heap_stack 00000604  20001db4  080054f8  00021db4  2**0
                  ALLOC
 11 .ARM.attributes 00000029  00000000  00000000  0002007c  2**0
                  CONTENTS, READONLY
 12 .debug_info   00012fb7  00000000  00000000  000200a5  2**0
                  CONTENTS, READONLY, DEBUGGING
 13 .debug_abbrev 000027f6  00000000  00000000  0003305c  2**0
                  CONTENTS, READONLY, DEBUGGING
 14 .debug_aranges 00000d68  00000000  00000000  00035858  2**3
                  CONTENTS, READONLY, DEBUGGING
 15 .debug_ranges 00000c40  00000000  00000000  000365c0  2**3
                  CONTENTS, READONLY, DEBUGGING
 16 .debug_macro  00003c51  00000000  00000000  00037200  2**0
                  CONTENTS, READONLY, DEBUGGING
 17 .debug_line   0000ca3c  00000000  00000000  0003ae51  2**0
                  CONTENTS, READONLY, DEBUGGING
 18 .debug_str    00074ba2  00000000  00000000  0004788d  2**0
                  CONTENTS, READONLY, DEBUGGING
 19 .comment      0000007b  00000000  00000000  000bc42f  2**0
                  CONTENTS, READONLY
 20 .debug_frame  00003940  00000000  00000000  000bc4ac  2**2
                  CONTENTS, READONLY, DEBUGGING

Disassembly of section .text:

08000110 <__do_global_dtors_aux>:
 8000110:	b510      	push	{r4, lr}
 8000112:	4c05      	ldr	r4, [pc, #20]	; (8000128 <__do_global_dtors_aux+0x18>)
 8000114:	7823      	ldrb	r3, [r4, #0]
 8000116:	b933      	cbnz	r3, 8000126 <__do_global_dtors_aux+0x16>
 8000118:	4b04      	ldr	r3, [pc, #16]	; (800012c <__do_global_dtors_aux+0x1c>)
 800011a:	b113      	cbz	r3, 8000122 <__do_global_dtors_aux+0x12>
 800011c:	4804      	ldr	r0, [pc, #16]	; (8000130 <__do_global_dtors_aux+0x20>)
 800011e:	f3af 8000 	nop.w
 8000122:	2301      	movs	r3, #1
 8000124:	7023      	strb	r3, [r4, #0]
 8000126:	bd10      	pop	{r4, pc}
 8000128:	2000007c 	.word	0x2000007c
 800012c:	00000000 	.word	0x00000000
 8000130:	080051c8 	.word	0x080051c8

08000134 <frame_dummy>:
 8000134:	b508      	push	{r3, lr}
 8000136:	4b03      	ldr	r3, [pc, #12]	; (8000144 <frame_dummy+0x10>)
 8000138:	b11b      	cbz	r3, 8000142 <frame_dummy+0xe>
 800013a:	4903      	ldr	r1, [pc, #12]	; (8000148 <frame_dummy+0x14>)
 800013c:	4803      	ldr	r0, [pc, #12]	; (800014c <frame_dummy+0x18>)
 800013e:	f3af 8000 	nop.w
 8000142:	bd08      	pop	{r3, pc}
 8000144:	00000000 	.word	0x00000000
 8000148:	20000080 	.word	0x20000080
 800014c:	080051c8 	.word	0x080051c8

08000150 <strlen>:
 8000150:	4603      	mov	r3, r0
 8000152:	f813 2b01 	ldrb.w	r2, [r3], #1
 8000156:	2a00      	cmp	r2, #0
 8000158:	d1fb      	bne.n	8000152 <strlen+0x2>
 800015a:	1a18      	subs	r0, r3, r0
 800015c:	3801      	subs	r0, #1
 800015e:	4770      	bx	lr

08000160 <main>:
/**
  * @brief  The application entry point.
  * @retval int
  */
int main(void)
{
 8000160:	b5f0      	push	{r4, r5, r6, r7, lr}
 8000162:	b08f      	sub	sp, #60	; 0x3c
 8000164:	af0e      	add	r7, sp, #56	; 0x38
  /* USER CODE END 1 */

  /* MCU Configuration--------------------------------------------------------*/

  /* Reset of all peripherals, Initializes the Flash interface and the Systick. */
  HAL_Init();
 8000166:	f000 fd5d 	bl	8000c24 <HAL_Init>
  /* USER CODE BEGIN Init */

  /* USER CODE END Init */

  /* Configure the system clock */
  SystemClock_Config();
 800016a:	f000 f9cb 	bl	8000504 <SystemClock_Config>
  /* USER CODE BEGIN SysInit */

  /* USER CODE END SysInit */

  /* Initialize all configured peripherals */
  MX_GPIO_Init();
 800016e:	f000 fa39 	bl	80005e4 <MX_GPIO_Init>
  MX_USART2_UART_Init();
 8000172:	f000 fa0d 	bl	8000590 <MX_USART2_UART_Init>
  /* USER CODE BEGIN 2 */
  offAllLed;
 8000176:	2201      	movs	r2, #1
 8000178:	2120      	movs	r1, #32
 800017a:	48b2      	ldr	r0, [pc, #712]	; (8000444 <main+0x2e4>)
 800017c:	f000 fff2 	bl	8001164 <HAL_GPIO_WritePin>
 8000180:	2201      	movs	r2, #1
 8000182:	f44f 5180 	mov.w	r1, #4096	; 0x1000
 8000186:	48b0      	ldr	r0, [pc, #704]	; (8000448 <main+0x2e8>)
 8000188:	f000 ffec 	bl	8001164 <HAL_GPIO_WritePin>
 800018c:	2201      	movs	r2, #1
 800018e:	f44f 6100 	mov.w	r1, #2048	; 0x800
 8000192:	48ad      	ldr	r0, [pc, #692]	; (8000448 <main+0x2e8>)
 8000194:	f000 ffe6 	bl	8001164 <HAL_GPIO_WritePin>
 8000198:	2201      	movs	r2, #1
 800019a:	f44f 7180 	mov.w	r1, #256	; 0x100
 800019e:	48a9      	ldr	r0, [pc, #676]	; (8000444 <main+0x2e4>)
 80001a0:	f000 ffe0 	bl	8001164 <HAL_GPIO_WritePin>
  /* USER CODE END 2 */

  /* Init scheduler */
  osKernelInitialize();
 80001a4:	f001 fe34 	bl	8001e10 <osKernelInitialize>
  /* start timers, add new ones, ... */
  /* USER CODE END RTOS_TIMERS */

  /* USER CODE BEGIN RTOS_QUEUES */
  /* add queues, ... */
  queue_handle = osMessageQueueNew(5, sizeof(uint32_t), NULL);
 80001a8:	2200      	movs	r2, #0
 80001aa:	2104      	movs	r1, #4
 80001ac:	2005      	movs	r0, #5
 80001ae:	f001 ff6d 	bl	800208c <osMessageQueueNew>
 80001b2:	4602      	mov	r2, r0
 80001b4:	4ba5      	ldr	r3, [pc, #660]	; (800044c <main+0x2ec>)
 80001b6:	601a      	str	r2, [r3, #0]
  if (queue_handle == NULL)
 80001b8:	4ba4      	ldr	r3, [pc, #656]	; (800044c <main+0x2ec>)
 80001ba:	681b      	ldr	r3, [r3, #0]
 80001bc:	2b00      	cmp	r3, #0
 80001be:	d12a      	bne.n	8000216 <main+0xb6>
  {
    error_count++;
 80001c0:	4ba3      	ldr	r3, [pc, #652]	; (8000450 <main+0x2f0>)
 80001c2:	681b      	ldr	r3, [r3, #0]
 80001c4:	3301      	adds	r3, #1
 80001c6:	4aa2      	ldr	r2, [pc, #648]	; (8000450 <main+0x2f0>)
 80001c8:	6013      	str	r3, [r2, #0]
    PRINTF("Failed to create new queue\r\n");
 80001ca:	2264      	movs	r2, #100	; 0x64
 80001cc:	2100      	movs	r1, #0
 80001ce:	48a1      	ldr	r0, [pc, #644]	; (8000454 <main+0x2f4>)
 80001d0:	f004 fbe9 	bl	80049a6 <memset>
 80001d4:	4a9f      	ldr	r2, [pc, #636]	; (8000454 <main+0x2f4>)
 80001d6:	4ba0      	ldr	r3, [pc, #640]	; (8000458 <main+0x2f8>)
 80001d8:	4615      	mov	r5, r2
 80001da:	461c      	mov	r4, r3
 80001dc:	cc0f      	ldmia	r4!, {r0, r1, r2, r3}
 80001de:	6028      	str	r0, [r5, #0]
 80001e0:	6069      	str	r1, [r5, #4]
 80001e2:	60aa      	str	r2, [r5, #8]
 80001e4:	60eb      	str	r3, [r5, #12]
 80001e6:	cc07      	ldmia	r4!, {r0, r1, r2}
 80001e8:	6128      	str	r0, [r5, #16]
 80001ea:	6169      	str	r1, [r5, #20]
 80001ec:	61aa      	str	r2, [r5, #24]
 80001ee:	7823      	ldrb	r3, [r4, #0]
 80001f0:	772b      	strb	r3, [r5, #28]
 80001f2:	4e9a      	ldr	r6, [pc, #616]	; (800045c <main+0x2fc>)
 80001f4:	4b97      	ldr	r3, [pc, #604]	; (8000454 <main+0x2f4>)
 80001f6:	930c      	str	r3, [sp, #48]	; 0x30
 80001f8:	466d      	mov	r5, sp
 80001fa:	f106 0410 	add.w	r4, r6, #16
 80001fe:	cc0f      	ldmia	r4!, {r0, r1, r2, r3}
 8000200:	c50f      	stmia	r5!, {r0, r1, r2, r3}
 8000202:	cc0f      	ldmia	r4!, {r0, r1, r2, r3}
 8000204:	c50f      	stmia	r5!, {r0, r1, r2, r3}
 8000206:	e894 000f 	ldmia.w	r4, {r0, r1, r2, r3}
 800020a:	e885 000f 	stmia.w	r5, {r0, r1, r2, r3}
 800020e:	e896 000f 	ldmia.w	r6, {r0, r1, r2, r3}
 8000212:	f000 fbbb 	bl	800098c <vUARTSend>
  /* USER CODE END RTOS_QUEUES */

  /* Create the thread(s) */

  /* creation of blinkLed1 */
  blinkLed1Handle = osThreadNew(haltCheckLedTask, NULL, &blinkLed1_attributes);
 8000216:	4a92      	ldr	r2, [pc, #584]	; (8000460 <main+0x300>)
 8000218:	2100      	movs	r1, #0
 800021a:	4892      	ldr	r0, [pc, #584]	; (8000464 <main+0x304>)
 800021c:	f001 fe5e 	bl	8001edc <osThreadNew>
 8000220:	4602      	mov	r2, r0
 8000222:	4b91      	ldr	r3, [pc, #580]	; (8000468 <main+0x308>)
 8000224:	601a      	str	r2, [r3, #0]

  /* USER CODE BEGIN RTOS_THREADS */
  /* creation of Sender task*/
  SenderHandle1 = osThreadNew(senderTask, (void *)data_to_send, &Sender_attributes);
 8000226:	4a91      	ldr	r2, [pc, #580]	; (800046c <main+0x30c>)
 8000228:	4991      	ldr	r1, [pc, #580]	; (8000470 <main+0x310>)
 800022a:	4892      	ldr	r0, [pc, #584]	; (8000474 <main+0x314>)
 800022c:	f001 fe56 	bl	8001edc <osThreadNew>
 8000230:	4602      	mov	r2, r0
 8000232:	4b91      	ldr	r3, [pc, #580]	; (8000478 <main+0x318>)
 8000234:	601a      	str	r2, [r3, #0]
  if (SenderHandle1 == NULL)
 8000236:	4b90      	ldr	r3, [pc, #576]	; (8000478 <main+0x318>)
 8000238:	681b      	ldr	r3, [r3, #0]
 800023a:	2b00      	cmp	r3, #0
 800023c:	d12d      	bne.n	800029a <main+0x13a>
  {
    PRINTF("Failed creating senderTask1 \r\n");
 800023e:	2264      	movs	r2, #100	; 0x64
 8000240:	2100      	movs	r1, #0
 8000242:	4884      	ldr	r0, [pc, #528]	; (8000454 <main+0x2f4>)
 8000244:	f004 fbaf 	bl	80049a6 <memset>
 8000248:	4a82      	ldr	r2, [pc, #520]	; (8000454 <main+0x2f4>)
 800024a:	4b8c      	ldr	r3, [pc, #560]	; (800047c <main+0x31c>)
 800024c:	4615      	mov	r5, r2
 800024e:	461c      	mov	r4, r3
 8000250:	cc0f      	ldmia	r4!, {r0, r1, r2, r3}
 8000252:	6028      	str	r0, [r5, #0]
 8000254:	6069      	str	r1, [r5, #4]
 8000256:	60aa      	str	r2, [r5, #8]
 8000258:	60eb      	str	r3, [r5, #12]
 800025a:	cc07      	ldmia	r4!, {r0, r1, r2}
 800025c:	6128      	str	r0, [r5, #16]
 800025e:	6169      	str	r1, [r5, #20]
 8000260:	61aa      	str	r2, [r5, #24]
 8000262:	8823      	ldrh	r3, [r4, #0]
 8000264:	78a2      	ldrb	r2, [r4, #2]
 8000266:	83ab      	strh	r3, [r5, #28]
 8000268:	4613      	mov	r3, r2
 800026a:	77ab      	strb	r3, [r5, #30]
 800026c:	4e7b      	ldr	r6, [pc, #492]	; (800045c <main+0x2fc>)
 800026e:	4b79      	ldr	r3, [pc, #484]	; (8000454 <main+0x2f4>)
 8000270:	930c      	str	r3, [sp, #48]	; 0x30
 8000272:	466d      	mov	r5, sp
 8000274:	f106 0410 	add.w	r4, r6, #16
 8000278:	cc0f      	ldmia	r4!, {r0, r1, r2, r3}
 800027a:	c50f      	stmia	r5!, {r0, r1, r2, r3}
 800027c:	cc0f      	ldmia	r4!, {r0, r1, r2, r3}
 800027e:	c50f      	stmia	r5!, {r0, r1, r2, r3}
 8000280:	e894 000f 	ldmia.w	r4, {r0, r1, r2, r3}
 8000284:	e885 000f 	stmia.w	r5, {r0, r1, r2, r3}
 8000288:	e896 000f 	ldmia.w	r6, {r0, r1, r2, r3}
 800028c:	f000 fb7e 	bl	800098c <vUARTSend>
    error_count++;
 8000290:	4b6f      	ldr	r3, [pc, #444]	; (8000450 <main+0x2f0>)
 8000292:	681b      	ldr	r3, [r3, #0]
 8000294:	3301      	adds	r3, #1
 8000296:	4a6e      	ldr	r2, [pc, #440]	; (8000450 <main+0x2f0>)
 8000298:	6013      	str	r3, [r2, #0]
  }
  SenderHandle2 = osThreadNew(senderTask, (void *)(data_to_send + 1), &Sender_attributes);
 800029a:	4b79      	ldr	r3, [pc, #484]	; (8000480 <main+0x320>)
 800029c:	4a73      	ldr	r2, [pc, #460]	; (800046c <main+0x30c>)
 800029e:	4619      	mov	r1, r3
 80002a0:	4874      	ldr	r0, [pc, #464]	; (8000474 <main+0x314>)
 80002a2:	f001 fe1b 	bl	8001edc <osThreadNew>
 80002a6:	4602      	mov	r2, r0
 80002a8:	4b76      	ldr	r3, [pc, #472]	; (8000484 <main+0x324>)
 80002aa:	601a      	str	r2, [r3, #0]
  if (SenderHandle2 == NULL)
 80002ac:	4b75      	ldr	r3, [pc, #468]	; (8000484 <main+0x324>)
 80002ae:	681b      	ldr	r3, [r3, #0]
 80002b0:	2b00      	cmp	r3, #0
 80002b2:	d12d      	bne.n	8000310 <main+0x1b0>
  {
    PRINTF("Failed creating senderTask2 \r\n");
 80002b4:	2264      	movs	r2, #100	; 0x64
 80002b6:	2100      	movs	r1, #0
 80002b8:	4866      	ldr	r0, [pc, #408]	; (8000454 <main+0x2f4>)
 80002ba:	f004 fb74 	bl	80049a6 <memset>
 80002be:	4a65      	ldr	r2, [pc, #404]	; (8000454 <main+0x2f4>)
 80002c0:	4b71      	ldr	r3, [pc, #452]	; (8000488 <main+0x328>)
 80002c2:	4615      	mov	r5, r2
 80002c4:	461c      	mov	r4, r3
 80002c6:	cc0f      	ldmia	r4!, {r0, r1, r2, r3}
 80002c8:	6028      	str	r0, [r5, #0]
 80002ca:	6069      	str	r1, [r5, #4]
 80002cc:	60aa      	str	r2, [r5, #8]
 80002ce:	60eb      	str	r3, [r5, #12]
 80002d0:	cc07      	ldmia	r4!, {r0, r1, r2}
 80002d2:	6128      	str	r0, [r5, #16]
 80002d4:	6169      	str	r1, [r5, #20]
 80002d6:	61aa      	str	r2, [r5, #24]
 80002d8:	8823      	ldrh	r3, [r4, #0]
 80002da:	78a2      	ldrb	r2, [r4, #2]
 80002dc:	83ab      	strh	r3, [r5, #28]
 80002de:	4613      	mov	r3, r2
 80002e0:	77ab      	strb	r3, [r5, #30]
 80002e2:	4e5e      	ldr	r6, [pc, #376]	; (800045c <main+0x2fc>)
 80002e4:	4b5b      	ldr	r3, [pc, #364]	; (8000454 <main+0x2f4>)
 80002e6:	930c      	str	r3, [sp, #48]	; 0x30
 80002e8:	466d      	mov	r5, sp
 80002ea:	f106 0410 	add.w	r4, r6, #16
 80002ee:	cc0f      	ldmia	r4!, {r0, r1, r2, r3}
 80002f0:	c50f      	stmia	r5!, {r0, r1, r2, r3}
 80002f2:	cc0f      	ldmia	r4!, {r0, r1, r2, r3}
 80002f4:	c50f      	stmia	r5!, {r0, r1, r2, r3}
 80002f6:	e894 000f 	ldmia.w	r4, {r0, r1, r2, r3}
 80002fa:	e885 000f 	stmia.w	r5, {r0, r1, r2, r3}
 80002fe:	e896 000f 	ldmia.w	r6, {r0, r1, r2, r3}
 8000302:	f000 fb43 	bl	800098c <vUARTSend>
    error_count++;
 8000306:	4b52      	ldr	r3, [pc, #328]	; (8000450 <main+0x2f0>)
 8000308:	681b      	ldr	r3, [r3, #0]
 800030a:	3301      	adds	r3, #1
 800030c:	4a50      	ldr	r2, [pc, #320]	; (8000450 <main+0x2f0>)
 800030e:	6013      	str	r3, [r2, #0]
  }
  /* creation of Receiver task */
  ReceiverHandle = osThreadNew(receiverTask, NULL, &Receiver_attributes);
 8000310:	4a5e      	ldr	r2, [pc, #376]	; (800048c <main+0x32c>)
 8000312:	2100      	movs	r1, #0
 8000314:	485e      	ldr	r0, [pc, #376]	; (8000490 <main+0x330>)
 8000316:	f001 fde1 	bl	8001edc <osThreadNew>
 800031a:	4602      	mov	r2, r0
 800031c:	4b5d      	ldr	r3, [pc, #372]	; (8000494 <main+0x334>)
 800031e:	601a      	str	r2, [r3, #0]
  if (ReceiverHandle == NULL)
 8000320:	4b5c      	ldr	r3, [pc, #368]	; (8000494 <main+0x334>)
 8000322:	681b      	ldr	r3, [r3, #0]
 8000324:	2b00      	cmp	r3, #0
 8000326:	d129      	bne.n	800037c <main+0x21c>
  {
    PRINTF("Failed creating receiverTask \r\n");
 8000328:	2264      	movs	r2, #100	; 0x64
 800032a:	2100      	movs	r1, #0
 800032c:	4849      	ldr	r0, [pc, #292]	; (8000454 <main+0x2f4>)
 800032e:	f004 fb3a 	bl	80049a6 <memset>
 8000332:	4a48      	ldr	r2, [pc, #288]	; (8000454 <main+0x2f4>)
 8000334:	4b58      	ldr	r3, [pc, #352]	; (8000498 <main+0x338>)
 8000336:	4614      	mov	r4, r2
 8000338:	461d      	mov	r5, r3
 800033a:	cd0f      	ldmia	r5!, {r0, r1, r2, r3}
 800033c:	6020      	str	r0, [r4, #0]
 800033e:	6061      	str	r1, [r4, #4]
 8000340:	60a2      	str	r2, [r4, #8]
 8000342:	60e3      	str	r3, [r4, #12]
 8000344:	cd0f      	ldmia	r5!, {r0, r1, r2, r3}
 8000346:	6120      	str	r0, [r4, #16]
 8000348:	6161      	str	r1, [r4, #20]
 800034a:	61a2      	str	r2, [r4, #24]
 800034c:	61e3      	str	r3, [r4, #28]
 800034e:	4e43      	ldr	r6, [pc, #268]	; (800045c <main+0x2fc>)
 8000350:	4b40      	ldr	r3, [pc, #256]	; (8000454 <main+0x2f4>)
 8000352:	930c      	str	r3, [sp, #48]	; 0x30
 8000354:	466d      	mov	r5, sp
 8000356:	f106 0410 	add.w	r4, r6, #16
 800035a:	cc0f      	ldmia	r4!, {r0, r1, r2, r3}
 800035c:	c50f      	stmia	r5!, {r0, r1, r2, r3}
 800035e:	cc0f      	ldmia	r4!, {r0, r1, r2, r3}
 8000360:	c50f      	stmia	r5!, {r0, r1, r2, r3}
 8000362:	e894 000f 	ldmia.w	r4, {r0, r1, r2, r3}
 8000366:	e885 000f 	stmia.w	r5, {r0, r1, r2, r3}
 800036a:	e896 000f 	ldmia.w	r6, {r0, r1, r2, r3}
 800036e:	f000 fb0d 	bl	800098c <vUARTSend>
    error_count++;
 8000372:	4b37      	ldr	r3, [pc, #220]	; (8000450 <main+0x2f0>)
 8000374:	681b      	ldr	r3, [r3, #0]
 8000376:	3301      	adds	r3, #1
 8000378:	4a35      	ldr	r2, [pc, #212]	; (8000450 <main+0x2f0>)
 800037a:	6013      	str	r3, [r2, #0]
  }
  /* add threads, ... */
  printVar(error_count);
 800037c:	2264      	movs	r2, #100	; 0x64
 800037e:	2100      	movs	r1, #0
 8000380:	4834      	ldr	r0, [pc, #208]	; (8000454 <main+0x2f4>)
 8000382:	f004 fb10 	bl	80049a6 <memset>
 8000386:	4b32      	ldr	r3, [pc, #200]	; (8000450 <main+0x2f0>)
 8000388:	681b      	ldr	r3, [r3, #0]
 800038a:	461a      	mov	r2, r3
 800038c:	4943      	ldr	r1, [pc, #268]	; (800049c <main+0x33c>)
 800038e:	4831      	ldr	r0, [pc, #196]	; (8000454 <main+0x2f4>)
 8000390:	f004 fb12 	bl	80049b8 <siprintf>
 8000394:	4e31      	ldr	r6, [pc, #196]	; (800045c <main+0x2fc>)
 8000396:	4b2f      	ldr	r3, [pc, #188]	; (8000454 <main+0x2f4>)
 8000398:	930c      	str	r3, [sp, #48]	; 0x30
 800039a:	466d      	mov	r5, sp
 800039c:	f106 0410 	add.w	r4, r6, #16
 80003a0:	cc0f      	ldmia	r4!, {r0, r1, r2, r3}
 80003a2:	c50f      	stmia	r5!, {r0, r1, r2, r3}
 80003a4:	cc0f      	ldmia	r4!, {r0, r1, r2, r3}
 80003a6:	c50f      	stmia	r5!, {r0, r1, r2, r3}
 80003a8:	e894 000f 	ldmia.w	r4, {r0, r1, r2, r3}
 80003ac:	e885 000f 	stmia.w	r5, {r0, r1, r2, r3}
 80003b0:	e896 000f 	ldmia.w	r6, {r0, r1, r2, r3}
 80003b4:	f000 faea 	bl	800098c <vUARTSend>
 80003b8:	2264      	movs	r2, #100	; 0x64
 80003ba:	2100      	movs	r1, #0
 80003bc:	4825      	ldr	r0, [pc, #148]	; (8000454 <main+0x2f4>)
 80003be:	f004 faf2 	bl	80049a6 <memset>
 80003c2:	4b24      	ldr	r3, [pc, #144]	; (8000454 <main+0x2f4>)
 80003c4:	4a36      	ldr	r2, [pc, #216]	; (80004a0 <main+0x340>)
 80003c6:	8811      	ldrh	r1, [r2, #0]
 80003c8:	7892      	ldrb	r2, [r2, #2]
 80003ca:	8019      	strh	r1, [r3, #0]
 80003cc:	709a      	strb	r2, [r3, #2]
 80003ce:	4e23      	ldr	r6, [pc, #140]	; (800045c <main+0x2fc>)
 80003d0:	4b20      	ldr	r3, [pc, #128]	; (8000454 <main+0x2f4>)
 80003d2:	930c      	str	r3, [sp, #48]	; 0x30
 80003d4:	466d      	mov	r5, sp
 80003d6:	f106 0410 	add.w	r4, r6, #16
 80003da:	cc0f      	ldmia	r4!, {r0, r1, r2, r3}
 80003dc:	c50f      	stmia	r5!, {r0, r1, r2, r3}
 80003de:	cc0f      	ldmia	r4!, {r0, r1, r2, r3}
 80003e0:	c50f      	stmia	r5!, {r0, r1, r2, r3}
 80003e2:	e894 000f 	ldmia.w	r4, {r0, r1, r2, r3}
 80003e6:	e885 000f 	stmia.w	r5, {r0, r1, r2, r3}
 80003ea:	e896 000f 	ldmia.w	r6, {r0, r1, r2, r3}
 80003ee:	f000 facd 	bl	800098c <vUARTSend>
  /* USER CODE END RTOS_THREADS */

  /* Start scheduler */
  if (error_count == 0)
 80003f2:	4b17      	ldr	r3, [pc, #92]	; (8000450 <main+0x2f0>)
 80003f4:	681b      	ldr	r3, [r3, #0]
 80003f6:	2b00      	cmp	r3, #0
 80003f8:	d156      	bne.n	80004a8 <main+0x348>
  {
    PRINTF("Start RTOS_Kernel\r\n");
 80003fa:	2264      	movs	r2, #100	; 0x64
 80003fc:	2100      	movs	r1, #0
 80003fe:	4815      	ldr	r0, [pc, #84]	; (8000454 <main+0x2f4>)
 8000400:	f004 fad1 	bl	80049a6 <memset>
 8000404:	4a13      	ldr	r2, [pc, #76]	; (8000454 <main+0x2f4>)
 8000406:	4b27      	ldr	r3, [pc, #156]	; (80004a4 <main+0x344>)
 8000408:	4615      	mov	r5, r2
 800040a:	461c      	mov	r4, r3
 800040c:	cc0f      	ldmia	r4!, {r0, r1, r2, r3}
 800040e:	6028      	str	r0, [r5, #0]
 8000410:	6069      	str	r1, [r5, #4]
 8000412:	60aa      	str	r2, [r5, #8]
 8000414:	60eb      	str	r3, [r5, #12]
 8000416:	6820      	ldr	r0, [r4, #0]
 8000418:	6128      	str	r0, [r5, #16]
 800041a:	4e10      	ldr	r6, [pc, #64]	; (800045c <main+0x2fc>)
 800041c:	4b0d      	ldr	r3, [pc, #52]	; (8000454 <main+0x2f4>)
 800041e:	930c      	str	r3, [sp, #48]	; 0x30
 8000420:	466d      	mov	r5, sp
 8000422:	f106 0410 	add.w	r4, r6, #16
 8000426:	cc0f      	ldmia	r4!, {r0, r1, r2, r3}
 8000428:	c50f      	stmia	r5!, {r0, r1, r2, r3}
 800042a:	cc0f      	ldmia	r4!, {r0, r1, r2, r3}
 800042c:	c50f      	stmia	r5!, {r0, r1, r2, r3}
 800042e:	e894 000f 	ldmia.w	r4, {r0, r1, r2, r3}
 8000432:	e885 000f 	stmia.w	r5, {r0, r1, r2, r3}
 8000436:	e896 000f 	ldmia.w	r6, {r0, r1, r2, r3}
 800043a:	f000 faa7 	bl	800098c <vUARTSend>
    osKernelStart();
 800043e:	f001 fd19 	bl	8001e74 <osKernelStart>
 8000442:	e057      	b.n	80004f4 <main+0x394>
 8000444:	40010c00 	.word	0x40010c00
 8000448:	40010800 	.word	0x40010800
 800044c:	20000098 	.word	0x20000098
 8000450:	2000009c 	.word	0x2000009c
 8000454:	20001cbc 	.word	0x20001cbc
 8000458:	08005200 	.word	0x08005200
 800045c:	20001d2c 	.word	0x20001d2c
 8000460:	080053bc 	.word	0x080053bc
 8000464:	08000961 	.word	0x08000961
 8000468:	20001d20 	.word	0x20001d20
 800046c:	080053e0 	.word	0x080053e0
 8000470:	20000000 	.word	0x20000000
 8000474:	080006a9 	.word	0x080006a9
 8000478:	20001d28 	.word	0x20001d28
 800047c:	08005220 	.word	0x08005220
 8000480:	20000004 	.word	0x20000004
 8000484:	20001cb8 	.word	0x20001cb8
 8000488:	08005240 	.word	0x08005240
 800048c:	08005404 	.word	0x08005404
 8000490:	0800077d 	.word	0x0800077d
 8000494:	20001d24 	.word	0x20001d24
 8000498:	08005260 	.word	0x08005260
 800049c:	08005280 	.word	0x08005280
 80004a0:	0800529c 	.word	0x0800529c
 80004a4:	080052a0 	.word	0x080052a0
  }
  else
  {
    PRINTF("Failed to start RTOS_Kernel\r\n");
 80004a8:	2264      	movs	r2, #100	; 0x64
 80004aa:	2100      	movs	r1, #0
 80004ac:	4812      	ldr	r0, [pc, #72]	; (80004f8 <main+0x398>)
 80004ae:	f004 fa7a 	bl	80049a6 <memset>
 80004b2:	4a11      	ldr	r2, [pc, #68]	; (80004f8 <main+0x398>)
 80004b4:	4b11      	ldr	r3, [pc, #68]	; (80004fc <main+0x39c>)
 80004b6:	4615      	mov	r5, r2
 80004b8:	461c      	mov	r4, r3
 80004ba:	cc0f      	ldmia	r4!, {r0, r1, r2, r3}
 80004bc:	6028      	str	r0, [r5, #0]
 80004be:	6069      	str	r1, [r5, #4]
 80004c0:	60aa      	str	r2, [r5, #8]
 80004c2:	60eb      	str	r3, [r5, #12]
 80004c4:	cc07      	ldmia	r4!, {r0, r1, r2}
 80004c6:	6128      	str	r0, [r5, #16]
 80004c8:	6169      	str	r1, [r5, #20]
 80004ca:	61aa      	str	r2, [r5, #24]
 80004cc:	8823      	ldrh	r3, [r4, #0]
 80004ce:	83ab      	strh	r3, [r5, #28]
 80004d0:	4e0b      	ldr	r6, [pc, #44]	; (8000500 <main+0x3a0>)
 80004d2:	4b09      	ldr	r3, [pc, #36]	; (80004f8 <main+0x398>)
 80004d4:	930c      	str	r3, [sp, #48]	; 0x30
 80004d6:	466d      	mov	r5, sp
 80004d8:	f106 0410 	add.w	r4, r6, #16
 80004dc:	cc0f      	ldmia	r4!, {r0, r1, r2, r3}
 80004de:	c50f      	stmia	r5!, {r0, r1, r2, r3}
 80004e0:	cc0f      	ldmia	r4!, {r0, r1, r2, r3}
 80004e2:	c50f      	stmia	r5!, {r0, r1, r2, r3}
 80004e4:	e894 000f 	ldmia.w	r4, {r0, r1, r2, r3}
 80004e8:	e885 000f 	stmia.w	r5, {r0, r1, r2, r3}
 80004ec:	e896 000f 	ldmia.w	r6, {r0, r1, r2, r3}
 80004f0:	f000 fa4c 	bl	800098c <vUARTSend>
  }
  /* We should never get here as control is now taken by the scheduler */
  /* Infinite loop */
  /* USER CODE BEGIN WHILE */
  while (1)
 80004f4:	e7fe      	b.n	80004f4 <main+0x394>
 80004f6:	bf00      	nop
 80004f8:	20001cbc 	.word	0x20001cbc
 80004fc:	080052b4 	.word	0x080052b4
 8000500:	20001d2c 	.word	0x20001d2c

08000504 <SystemClock_Config>:
/**
  * @brief System Clock Configuration
  * @retval None
  */
void SystemClock_Config(void)
{
 8000504:	b580      	push	{r7, lr}
 8000506:	b090      	sub	sp, #64	; 0x40
 8000508:	af00      	add	r7, sp, #0
  RCC_OscInitTypeDef RCC_OscInitStruct = {0};
 800050a:	f107 0318 	add.w	r3, r7, #24
 800050e:	2228      	movs	r2, #40	; 0x28
 8000510:	2100      	movs	r1, #0
 8000512:	4618      	mov	r0, r3
 8000514:	f004 fa47 	bl	80049a6 <memset>
  RCC_ClkInitTypeDef RCC_ClkInitStruct = {0};
 8000518:	1d3b      	adds	r3, r7, #4
 800051a:	2200      	movs	r2, #0
 800051c:	601a      	str	r2, [r3, #0]
 800051e:	605a      	str	r2, [r3, #4]
 8000520:	609a      	str	r2, [r3, #8]
 8000522:	60da      	str	r2, [r3, #12]
 8000524:	611a      	str	r2, [r3, #16]

  /** Initializes the RCC Oscillators according to the specified parameters
  * in the RCC_OscInitTypeDef structure.
  */
  RCC_OscInitStruct.OscillatorType = RCC_OSCILLATORTYPE_HSE;
 8000526:	2301      	movs	r3, #1
 8000528:	61bb      	str	r3, [r7, #24]
  RCC_OscInitStruct.HSEState = RCC_HSE_ON;
 800052a:	f44f 3380 	mov.w	r3, #65536	; 0x10000
 800052e:	61fb      	str	r3, [r7, #28]
  RCC_OscInitStruct.HSEPredivValue = RCC_HSE_PREDIV_DIV1;
 8000530:	2300      	movs	r3, #0
 8000532:	623b      	str	r3, [r7, #32]
  RCC_OscInitStruct.HSIState = RCC_HSI_ON;
 8000534:	2301      	movs	r3, #1
 8000536:	62bb      	str	r3, [r7, #40]	; 0x28
  RCC_OscInitStruct.PLL.PLLState = RCC_PLL_ON;
 8000538:	2302      	movs	r3, #2
 800053a:	637b      	str	r3, [r7, #52]	; 0x34
  RCC_OscInitStruct.PLL.PLLSource = RCC_PLLSOURCE_HSE;
 800053c:	f44f 3380 	mov.w	r3, #65536	; 0x10000
 8000540:	63bb      	str	r3, [r7, #56]	; 0x38
  RCC_OscInitStruct.PLL.PLLMUL = RCC_PLL_MUL9;
 8000542:	f44f 13e0 	mov.w	r3, #1835008	; 0x1c0000
 8000546:	63fb      	str	r3, [r7, #60]	; 0x3c
  if (HAL_RCC_OscConfig(&RCC_OscInitStruct) != HAL_OK)
 8000548:	f107 0318 	add.w	r3, r7, #24
 800054c:	4618      	mov	r0, r3
 800054e:	f000 fe39 	bl	80011c4 <HAL_RCC_OscConfig>
 8000552:	4603      	mov	r3, r0
 8000554:	2b00      	cmp	r3, #0
 8000556:	d001      	beq.n	800055c <SystemClock_Config+0x58>
  {
    Error_Handler();
 8000558:	f000 fa12 	bl	8000980 <Error_Handler>
  }
  /** Initializes the CPU, AHB and APB buses clocks
  */
  RCC_ClkInitStruct.ClockType = RCC_CLOCKTYPE_HCLK | RCC_CLOCKTYPE_SYSCLK | RCC_CLOCKTYPE_PCLK1 | RCC_CLOCKTYPE_PCLK2;
 800055c:	230f      	movs	r3, #15
 800055e:	607b      	str	r3, [r7, #4]
  RCC_ClkInitStruct.SYSCLKSource = RCC_SYSCLKSOURCE_PLLCLK;
 8000560:	2302      	movs	r3, #2
 8000562:	60bb      	str	r3, [r7, #8]
  RCC_ClkInitStruct.AHBCLKDivider = RCC_SYSCLK_DIV1;
 8000564:	2300      	movs	r3, #0
 8000566:	60fb      	str	r3, [r7, #12]
  RCC_ClkInitStruct.APB1CLKDivider = RCC_HCLK_DIV2;
 8000568:	f44f 6380 	mov.w	r3, #1024	; 0x400
 800056c:	613b      	str	r3, [r7, #16]
  RCC_ClkInitStruct.APB2CLKDivider = RCC_HCLK_DIV1;
 800056e:	2300      	movs	r3, #0
 8000570:	617b      	str	r3, [r7, #20]

  if (HAL_RCC_ClockConfig(&RCC_ClkInitStruct, FLASH_LATENCY_2) != HAL_OK)
 8000572:	1d3b      	adds	r3, r7, #4
 8000574:	2102      	movs	r1, #2
 8000576:	4618      	mov	r0, r3
 8000578:	f001 f8a4 	bl	80016c4 <HAL_RCC_ClockConfig>
 800057c:	4603      	mov	r3, r0
 800057e:	2b00      	cmp	r3, #0
 8000580:	d001      	beq.n	8000586 <SystemClock_Config+0x82>
  {
    Error_Handler();
 8000582:	f000 f9fd 	bl	8000980 <Error_Handler>
  }
}
 8000586:	bf00      	nop
 8000588:	3740      	adds	r7, #64	; 0x40
 800058a:	46bd      	mov	sp, r7
 800058c:	bd80      	pop	{r7, pc}
	...

08000590 <MX_USART2_UART_Init>:
  * @brief USART2 Initialization Function
  * @param None
  * @retval None
  */
static void MX_USART2_UART_Init(void)
{
 8000590:	b580      	push	{r7, lr}
 8000592:	af00      	add	r7, sp, #0
  /* USER CODE END USART2_Init 0 */

  /* USER CODE BEGIN USART2_Init 1 */

  /* USER CODE END USART2_Init 1 */
  huart2.Instance = USART2;
 8000594:	4b11      	ldr	r3, [pc, #68]	; (80005dc <MX_USART2_UART_Init+0x4c>)
 8000596:	4a12      	ldr	r2, [pc, #72]	; (80005e0 <MX_USART2_UART_Init+0x50>)
 8000598:	601a      	str	r2, [r3, #0]
  huart2.Init.BaudRate = 115200;
 800059a:	4b10      	ldr	r3, [pc, #64]	; (80005dc <MX_USART2_UART_Init+0x4c>)
 800059c:	f44f 32e1 	mov.w	r2, #115200	; 0x1c200
 80005a0:	605a      	str	r2, [r3, #4]
  huart2.Init.WordLength = UART_WORDLENGTH_8B;
 80005a2:	4b0e      	ldr	r3, [pc, #56]	; (80005dc <MX_USART2_UART_Init+0x4c>)
 80005a4:	2200      	movs	r2, #0
 80005a6:	609a      	str	r2, [r3, #8]
  huart2.Init.StopBits = UART_STOPBITS_1;
 80005a8:	4b0c      	ldr	r3, [pc, #48]	; (80005dc <MX_USART2_UART_Init+0x4c>)
 80005aa:	2200      	movs	r2, #0
 80005ac:	60da      	str	r2, [r3, #12]
  huart2.Init.Parity = UART_PARITY_NONE;
 80005ae:	4b0b      	ldr	r3, [pc, #44]	; (80005dc <MX_USART2_UART_Init+0x4c>)
 80005b0:	2200      	movs	r2, #0
 80005b2:	611a      	str	r2, [r3, #16]
  huart2.Init.Mode = UART_MODE_TX_RX;
 80005b4:	4b09      	ldr	r3, [pc, #36]	; (80005dc <MX_USART2_UART_Init+0x4c>)
 80005b6:	220c      	movs	r2, #12
 80005b8:	615a      	str	r2, [r3, #20]
  huart2.Init.HwFlowCtl = UART_HWCONTROL_NONE;
 80005ba:	4b08      	ldr	r3, [pc, #32]	; (80005dc <MX_USART2_UART_Init+0x4c>)
 80005bc:	2200      	movs	r2, #0
 80005be:	619a      	str	r2, [r3, #24]
  huart2.Init.OverSampling = UART_OVERSAMPLING_16;
 80005c0:	4b06      	ldr	r3, [pc, #24]	; (80005dc <MX_USART2_UART_Init+0x4c>)
 80005c2:	2200      	movs	r2, #0
 80005c4:	61da      	str	r2, [r3, #28]
  if (HAL_UART_Init(&huart2) != HAL_OK)
 80005c6:	4805      	ldr	r0, [pc, #20]	; (80005dc <MX_USART2_UART_Init+0x4c>)
 80005c8:	f001 fa18 	bl	80019fc <HAL_UART_Init>
 80005cc:	4603      	mov	r3, r0
 80005ce:	2b00      	cmp	r3, #0
 80005d0:	d001      	beq.n	80005d6 <MX_USART2_UART_Init+0x46>
  {
    Error_Handler();
 80005d2:	f000 f9d5 	bl	8000980 <Error_Handler>
  }
  /* USER CODE BEGIN USART2_Init 2 */

  /* USER CODE END USART2_Init 2 */
}
 80005d6:	bf00      	nop
 80005d8:	bd80      	pop	{r7, pc}
 80005da:	bf00      	nop
 80005dc:	20001d2c 	.word	0x20001d2c
 80005e0:	40004400 	.word	0x40004400

080005e4 <MX_GPIO_Init>:
  * @brief GPIO Initialization Function
  * @param None
  * @retval None
  */
static void MX_GPIO_Init(void)
{
 80005e4:	b580      	push	{r7, lr}
 80005e6:	b088      	sub	sp, #32
 80005e8:	af00      	add	r7, sp, #0
  GPIO_InitTypeDef GPIO_InitStruct = {0};
 80005ea:	f107 0310 	add.w	r3, r7, #16
 80005ee:	2200      	movs	r2, #0
 80005f0:	601a      	str	r2, [r3, #0]
 80005f2:	605a      	str	r2, [r3, #4]
 80005f4:	609a      	str	r2, [r3, #8]
 80005f6:	60da      	str	r2, [r3, #12]

  /* GPIO Ports Clock Enable */
  __HAL_RCC_GPIOD_CLK_ENABLE();
 80005f8:	4b28      	ldr	r3, [pc, #160]	; (800069c <MX_GPIO_Init+0xb8>)
 80005fa:	699b      	ldr	r3, [r3, #24]
 80005fc:	4a27      	ldr	r2, [pc, #156]	; (800069c <MX_GPIO_Init+0xb8>)
 80005fe:	f043 0320 	orr.w	r3, r3, #32
 8000602:	6193      	str	r3, [r2, #24]
 8000604:	4b25      	ldr	r3, [pc, #148]	; (800069c <MX_GPIO_Init+0xb8>)
 8000606:	699b      	ldr	r3, [r3, #24]
 8000608:	f003 0320 	and.w	r3, r3, #32
 800060c:	60fb      	str	r3, [r7, #12]
 800060e:	68fb      	ldr	r3, [r7, #12]
  __HAL_RCC_GPIOA_CLK_ENABLE();
 8000610:	4b22      	ldr	r3, [pc, #136]	; (800069c <MX_GPIO_Init+0xb8>)
 8000612:	699b      	ldr	r3, [r3, #24]
 8000614:	4a21      	ldr	r2, [pc, #132]	; (800069c <MX_GPIO_Init+0xb8>)
 8000616:	f043 0304 	orr.w	r3, r3, #4
 800061a:	6193      	str	r3, [r2, #24]
 800061c:	4b1f      	ldr	r3, [pc, #124]	; (800069c <MX_GPIO_Init+0xb8>)
 800061e:	699b      	ldr	r3, [r3, #24]
 8000620:	f003 0304 	and.w	r3, r3, #4
 8000624:	60bb      	str	r3, [r7, #8]
 8000626:	68bb      	ldr	r3, [r7, #8]
  __HAL_RCC_GPIOB_CLK_ENABLE();
 8000628:	4b1c      	ldr	r3, [pc, #112]	; (800069c <MX_GPIO_Init+0xb8>)
 800062a:	699b      	ldr	r3, [r3, #24]
 800062c:	4a1b      	ldr	r2, [pc, #108]	; (800069c <MX_GPIO_Init+0xb8>)
 800062e:	f043 0308 	orr.w	r3, r3, #8
 8000632:	6193      	str	r3, [r2, #24]
 8000634:	4b19      	ldr	r3, [pc, #100]	; (800069c <MX_GPIO_Init+0xb8>)
 8000636:	699b      	ldr	r3, [r3, #24]
 8000638:	f003 0308 	and.w	r3, r3, #8
 800063c:	607b      	str	r3, [r7, #4]
 800063e:	687b      	ldr	r3, [r7, #4]

  /*Configure GPIO pin Output Level */
  HAL_GPIO_WritePin(GPIOA, GPIO_PIN_5 | GPIO_PIN_11 | GPIO_PIN_12, GPIO_PIN_RESET);
 8000640:	2200      	movs	r2, #0
 8000642:	f44f 51c1 	mov.w	r1, #6176	; 0x1820
 8000646:	4816      	ldr	r0, [pc, #88]	; (80006a0 <MX_GPIO_Init+0xbc>)
 8000648:	f000 fd8c 	bl	8001164 <HAL_GPIO_WritePin>

  /*Configure GPIO pin Output Level */
  HAL_GPIO_WritePin(GPIOB, GPIO_PIN_8, GPIO_PIN_RESET);
 800064c:	2200      	movs	r2, #0
 800064e:	f44f 7180 	mov.w	r1, #256	; 0x100
 8000652:	4814      	ldr	r0, [pc, #80]	; (80006a4 <MX_GPIO_Init+0xc0>)
 8000654:	f000 fd86 	bl	8001164 <HAL_GPIO_WritePin>

  /*Configure GPIO pins : PA5 PA11 PA12 */
  GPIO_InitStruct.Pin = GPIO_PIN_5 | GPIO_PIN_11 | GPIO_PIN_12;
 8000658:	f44f 53c1 	mov.w	r3, #6176	; 0x1820
 800065c:	613b      	str	r3, [r7, #16]
  GPIO_InitStruct.Mode = GPIO_MODE_OUTPUT_PP;
 800065e:	2301      	movs	r3, #1
 8000660:	617b      	str	r3, [r7, #20]
  GPIO_InitStruct.Pull = GPIO_NOPULL;
 8000662:	2300      	movs	r3, #0
 8000664:	61bb      	str	r3, [r7, #24]
  GPIO_InitStruct.Speed = GPIO_SPEED_FREQ_LOW;
 8000666:	2302      	movs	r3, #2
 8000668:	61fb      	str	r3, [r7, #28]
  HAL_GPIO_Init(GPIOA, &GPIO_InitStruct);
 800066a:	f107 0310 	add.w	r3, r7, #16
 800066e:	4619      	mov	r1, r3
 8000670:	480b      	ldr	r0, [pc, #44]	; (80006a0 <MX_GPIO_Init+0xbc>)
 8000672:	f000 fc1d 	bl	8000eb0 <HAL_GPIO_Init>

  /*Configure GPIO pin : PB8 */
  GPIO_InitStruct.Pin = GPIO_PIN_8;
 8000676:	f44f 7380 	mov.w	r3, #256	; 0x100
 800067a:	613b      	str	r3, [r7, #16]
  GPIO_InitStruct.Mode = GPIO_MODE_OUTPUT_PP;
 800067c:	2301      	movs	r3, #1
 800067e:	617b      	str	r3, [r7, #20]
  GPIO_InitStruct.Pull = GPIO_NOPULL;
 8000680:	2300      	movs	r3, #0
 8000682:	61bb      	str	r3, [r7, #24]
  GPIO_InitStruct.Speed = GPIO_SPEED_FREQ_LOW;
 8000684:	2302      	movs	r3, #2
 8000686:	61fb      	str	r3, [r7, #28]
  HAL_GPIO_Init(GPIOB, &GPIO_InitStruct);
 8000688:	f107 0310 	add.w	r3, r7, #16
 800068c:	4619      	mov	r1, r3
 800068e:	4805      	ldr	r0, [pc, #20]	; (80006a4 <MX_GPIO_Init+0xc0>)
 8000690:	f000 fc0e 	bl	8000eb0 <HAL_GPIO_Init>
}
 8000694:	bf00      	nop
 8000696:	3720      	adds	r7, #32
 8000698:	46bd      	mov	sp, r7
 800069a:	bd80      	pop	{r7, pc}
 800069c:	40021000 	.word	0x40021000
 80006a0:	40010800 	.word	0x40010800
 80006a4:	40010c00 	.word	0x40010c00

080006a8 <senderTask>:
/**

*/
/* USER CODE END Header_haltCheckLedTask */
void senderTask(void *argument)
{
 80006a8:	b5f0      	push	{r4, r5, r6, r7, lr}
 80006aa:	b095      	sub	sp, #84	; 0x54
 80006ac:	af0e      	add	r7, sp, #56	; 0x38
 80006ae:	6078      	str	r0, [r7, #4]
  TickType_t block_time = pdMS_TO_TICKS(1000);
 80006b0:	f44f 737a 	mov.w	r3, #1000	; 0x3e8
 80006b4:	617b      	str	r3, [r7, #20]
  /* USER CODE BEGIN haltCheckLedTask */
  BaseType_t status;
  /* Get parameter into variable */
  uint32_t *ul_value_to_send;
  ul_value_to_send = (uint32_t *)argument; /* Pointer to data */
 80006b6:	687b      	ldr	r3, [r7, #4]
 80006b8:	613b      	str	r3, [r7, #16]
  /* Infinite loop */
  for (;;)
  {
    PRINT_IN_TASK("SenderTask execute\r\n");
 80006ba:	2264      	movs	r2, #100	; 0x64
 80006bc:	2100      	movs	r1, #0
 80006be:	4829      	ldr	r0, [pc, #164]	; (8000764 <senderTask+0xbc>)
 80006c0:	f004 f971 	bl	80049a6 <memset>
 80006c4:	2000      	movs	r0, #0
 80006c6:	f002 fe5b 	bl	8003380 <pcTaskGetName>
 80006ca:	4602      	mov	r2, r0
 80006cc:	4b26      	ldr	r3, [pc, #152]	; (8000768 <senderTask+0xc0>)
 80006ce:	4927      	ldr	r1, [pc, #156]	; (800076c <senderTask+0xc4>)
 80006d0:	4824      	ldr	r0, [pc, #144]	; (8000764 <senderTask+0xbc>)
 80006d2:	f004 f971 	bl	80049b8 <siprintf>
 80006d6:	4e26      	ldr	r6, [pc, #152]	; (8000770 <senderTask+0xc8>)
 80006d8:	4b22      	ldr	r3, [pc, #136]	; (8000764 <senderTask+0xbc>)
 80006da:	930c      	str	r3, [sp, #48]	; 0x30
 80006dc:	466d      	mov	r5, sp
 80006de:	f106 0410 	add.w	r4, r6, #16
 80006e2:	cc0f      	ldmia	r4!, {r0, r1, r2, r3}
 80006e4:	c50f      	stmia	r5!, {r0, r1, r2, r3}
 80006e6:	cc0f      	ldmia	r4!, {r0, r1, r2, r3}
 80006e8:	c50f      	stmia	r5!, {r0, r1, r2, r3}
 80006ea:	e894 000f 	ldmia.w	r4, {r0, r1, r2, r3}
 80006ee:	e885 000f 	stmia.w	r5, {r0, r1, r2, r3}
 80006f2:	e896 000f 	ldmia.w	r6, {r0, r1, r2, r3}
 80006f6:	f000 f949 	bl	800098c <vUARTSend>
    (*ul_value_to_send)++;
 80006fa:	693b      	ldr	r3, [r7, #16]
 80006fc:	681b      	ldr	r3, [r3, #0]
 80006fe:	1c5a      	adds	r2, r3, #1
 8000700:	693b      	ldr	r3, [r7, #16]
 8000702:	601a      	str	r2, [r3, #0]
      status = xQueueSendToBack(queue_handle, (void *)ul_value_to_send, 0);
 8000704:	4b1b      	ldr	r3, [pc, #108]	; (8000774 <senderTask+0xcc>)
 8000706:	6818      	ldr	r0, [r3, #0]
 8000708:	2300      	movs	r3, #0
 800070a:	2200      	movs	r2, #0
 800070c:	6939      	ldr	r1, [r7, #16]
 800070e:	f001 ff5f 	bl	80025d0 <xQueueGenericSend>
 8000712:	60f8      	str	r0, [r7, #12]
    if (status != pdPASS)
 8000714:	68fb      	ldr	r3, [r7, #12]
 8000716:	2b01      	cmp	r3, #1
 8000718:	d01f      	beq.n	800075a <senderTask+0xb2>
    {
      PRINT_IN_TASK("Failed to send to queue\r\n");
 800071a:	2264      	movs	r2, #100	; 0x64
 800071c:	2100      	movs	r1, #0
 800071e:	4811      	ldr	r0, [pc, #68]	; (8000764 <senderTask+0xbc>)
 8000720:	f004 f941 	bl	80049a6 <memset>
 8000724:	2000      	movs	r0, #0
 8000726:	f002 fe2b 	bl	8003380 <pcTaskGetName>
 800072a:	4602      	mov	r2, r0
 800072c:	4b12      	ldr	r3, [pc, #72]	; (8000778 <senderTask+0xd0>)
 800072e:	490f      	ldr	r1, [pc, #60]	; (800076c <senderTask+0xc4>)
 8000730:	480c      	ldr	r0, [pc, #48]	; (8000764 <senderTask+0xbc>)
 8000732:	f004 f941 	bl	80049b8 <siprintf>
 8000736:	4e0e      	ldr	r6, [pc, #56]	; (8000770 <senderTask+0xc8>)
 8000738:	4b0a      	ldr	r3, [pc, #40]	; (8000764 <senderTask+0xbc>)
 800073a:	930c      	str	r3, [sp, #48]	; 0x30
 800073c:	466d      	mov	r5, sp
 800073e:	f106 0410 	add.w	r4, r6, #16
 8000742:	cc0f      	ldmia	r4!, {r0, r1, r2, r3}
 8000744:	c50f      	stmia	r5!, {r0, r1, r2, r3}
 8000746:	cc0f      	ldmia	r4!, {r0, r1, r2, r3}
 8000748:	c50f      	stmia	r5!, {r0, r1, r2, r3}
 800074a:	e894 000f 	ldmia.w	r4, {r0, r1, r2, r3}
 800074e:	e885 000f 	stmia.w	r5, {r0, r1, r2, r3}
 8000752:	e896 000f 	ldmia.w	r6, {r0, r1, r2, r3}
 8000756:	f000 f919 	bl	800098c <vUARTSend>
    }
    osDelay(block_time); /* Task execute every block_time */
 800075a:	6978      	ldr	r0, [r7, #20]
 800075c:	f001 fc68 	bl	8002030 <osDelay>
    PRINT_IN_TASK("SenderTask execute\r\n");
 8000760:	e7ab      	b.n	80006ba <senderTask+0x12>
 8000762:	bf00      	nop
 8000764:	20001cbc 	.word	0x20001cbc
 8000768:	080052d4 	.word	0x080052d4
 800076c:	080052ec 	.word	0x080052ec
 8000770:	20001d2c 	.word	0x20001d2c
 8000774:	20000098 	.word	0x20000098
 8000778:	080052f8 	.word	0x080052f8

0800077c <receiverTask>:
/**

*/
/* USER CODE END Header_haltCheckLedTask */
void receiverTask(void *argument)
{
 800077c:	b5f0      	push	{r4, r5, r6, r7, lr}
 800077e:	b095      	sub	sp, #84	; 0x54
 8000780:	af0e      	add	r7, sp, #56	; 0x38
 8000782:	6078      	str	r0, [r7, #4]
  const TickType_t block_time = pdMS_TO_TICKS(10000);
 8000784:	f242 7310 	movw	r3, #10000	; 0x2710
 8000788:	617b      	str	r3, [r7, #20]
  BaseType_t status;
  static uint32_t sequence_id = 0;
  uint32_t receive_data;
  uint8_t nb_data_on_queue = 0;
 800078a:	2300      	movs	r3, #0
 800078c:	74fb      	strb	r3, [r7, #19]
  /* Infinite loop */
  for (;;)
  {
    newline;
 800078e:	4e6a      	ldr	r6, [pc, #424]	; (8000938 <receiverTask+0x1bc>)
 8000790:	4b6a      	ldr	r3, [pc, #424]	; (800093c <receiverTask+0x1c0>)
 8000792:	930c      	str	r3, [sp, #48]	; 0x30
 8000794:	466d      	mov	r5, sp
 8000796:	f106 0410 	add.w	r4, r6, #16
 800079a:	cc0f      	ldmia	r4!, {r0, r1, r2, r3}
 800079c:	c50f      	stmia	r5!, {r0, r1, r2, r3}
 800079e:	cc0f      	ldmia	r4!, {r0, r1, r2, r3}
 80007a0:	c50f      	stmia	r5!, {r0, r1, r2, r3}
 80007a2:	e894 000f 	ldmia.w	r4, {r0, r1, r2, r3}
 80007a6:	e885 000f 	stmia.w	r5, {r0, r1, r2, r3}
 80007aa:	e896 000f 	ldmia.w	r6, {r0, r1, r2, r3}
 80007ae:	f000 f8ed 	bl	800098c <vUARTSend>
    ++sequence_id;
 80007b2:	4b63      	ldr	r3, [pc, #396]	; (8000940 <receiverTask+0x1c4>)
 80007b4:	681b      	ldr	r3, [r3, #0]
 80007b6:	3301      	adds	r3, #1
 80007b8:	4a61      	ldr	r2, [pc, #388]	; (8000940 <receiverTask+0x1c4>)
 80007ba:	6013      	str	r3, [r2, #0]
    PRINT_VAR_IN_TASK(sequence_id);
 80007bc:	2264      	movs	r2, #100	; 0x64
 80007be:	2100      	movs	r1, #0
 80007c0:	4860      	ldr	r0, [pc, #384]	; (8000944 <receiverTask+0x1c8>)
 80007c2:	f004 f8f0 	bl	80049a6 <memset>
 80007c6:	2000      	movs	r0, #0
 80007c8:	f002 fdda 	bl	8003380 <pcTaskGetName>
 80007cc:	4602      	mov	r2, r0
 80007ce:	4b5c      	ldr	r3, [pc, #368]	; (8000940 <receiverTask+0x1c4>)
 80007d0:	681b      	ldr	r3, [r3, #0]
 80007d2:	495d      	ldr	r1, [pc, #372]	; (8000948 <receiverTask+0x1cc>)
 80007d4:	485b      	ldr	r0, [pc, #364]	; (8000944 <receiverTask+0x1c8>)
 80007d6:	f004 f8ef 	bl	80049b8 <siprintf>
 80007da:	4e57      	ldr	r6, [pc, #348]	; (8000938 <receiverTask+0x1bc>)
 80007dc:	4b59      	ldr	r3, [pc, #356]	; (8000944 <receiverTask+0x1c8>)
 80007de:	930c      	str	r3, [sp, #48]	; 0x30
 80007e0:	466d      	mov	r5, sp
 80007e2:	f106 0410 	add.w	r4, r6, #16
 80007e6:	cc0f      	ldmia	r4!, {r0, r1, r2, r3}
 80007e8:	c50f      	stmia	r5!, {r0, r1, r2, r3}
 80007ea:	cc0f      	ldmia	r4!, {r0, r1, r2, r3}
 80007ec:	c50f      	stmia	r5!, {r0, r1, r2, r3}
 80007ee:	e894 000f 	ldmia.w	r4, {r0, r1, r2, r3}
 80007f2:	e885 000f 	stmia.w	r5, {r0, r1, r2, r3}
 80007f6:	e896 000f 	ldmia.w	r6, {r0, r1, r2, r3}
 80007fa:	f000 f8c7 	bl	800098c <vUARTSend>
 80007fe:	4e4e      	ldr	r6, [pc, #312]	; (8000938 <receiverTask+0x1bc>)
 8000800:	4b4e      	ldr	r3, [pc, #312]	; (800093c <receiverTask+0x1c0>)
 8000802:	930c      	str	r3, [sp, #48]	; 0x30
 8000804:	466d      	mov	r5, sp
 8000806:	f106 0410 	add.w	r4, r6, #16
 800080a:	cc0f      	ldmia	r4!, {r0, r1, r2, r3}
 800080c:	c50f      	stmia	r5!, {r0, r1, r2, r3}
 800080e:	cc0f      	ldmia	r4!, {r0, r1, r2, r3}
 8000810:	c50f      	stmia	r5!, {r0, r1, r2, r3}
 8000812:	e894 000f 	ldmia.w	r4, {r0, r1, r2, r3}
 8000816:	e885 000f 	stmia.w	r5, {r0, r1, r2, r3}
 800081a:	e896 000f 	ldmia.w	r6, {r0, r1, r2, r3}
 800081e:	f000 f8b5 	bl	800098c <vUARTSend>
    /* receiverTask has no specified block_time ==> whenever new data arrives on queue, receive_data will be unblocked  */
    nb_data_on_queue = (uint8_t)uxQueueMessagesWaiting(queue_handle); /* Returns the number of items that are currently held in a queue */
 8000822:	4b4a      	ldr	r3, [pc, #296]	; (800094c <receiverTask+0x1d0>)
 8000824:	681b      	ldr	r3, [r3, #0]
 8000826:	4618      	mov	r0, r3
 8000828:	f002 f93c 	bl	8002aa4 <uxQueueMessagesWaiting>
 800082c:	4603      	mov	r3, r0
 800082e:	74fb      	strb	r3, [r7, #19]
    if (nb_data_on_queue != 0)
 8000830:	7cfb      	ldrb	r3, [r7, #19]
 8000832:	2b00      	cmp	r3, #0
 8000834:	d01f      	beq.n	8000876 <receiverTask+0xfa>
    {
      PRINT_IN_TASK("Queue should have been empty\r\n");
 8000836:	2264      	movs	r2, #100	; 0x64
 8000838:	2100      	movs	r1, #0
 800083a:	4842      	ldr	r0, [pc, #264]	; (8000944 <receiverTask+0x1c8>)
 800083c:	f004 f8b3 	bl	80049a6 <memset>
 8000840:	2000      	movs	r0, #0
 8000842:	f002 fd9d 	bl	8003380 <pcTaskGetName>
 8000846:	4602      	mov	r2, r0
 8000848:	4b41      	ldr	r3, [pc, #260]	; (8000950 <receiverTask+0x1d4>)
 800084a:	4942      	ldr	r1, [pc, #264]	; (8000954 <receiverTask+0x1d8>)
 800084c:	483d      	ldr	r0, [pc, #244]	; (8000944 <receiverTask+0x1c8>)
 800084e:	f004 f8b3 	bl	80049b8 <siprintf>
 8000852:	4e39      	ldr	r6, [pc, #228]	; (8000938 <receiverTask+0x1bc>)
 8000854:	4b3b      	ldr	r3, [pc, #236]	; (8000944 <receiverTask+0x1c8>)
 8000856:	930c      	str	r3, [sp, #48]	; 0x30
 8000858:	466d      	mov	r5, sp
 800085a:	f106 0410 	add.w	r4, r6, #16
 800085e:	cc0f      	ldmia	r4!, {r0, r1, r2, r3}
 8000860:	c50f      	stmia	r5!, {r0, r1, r2, r3}
 8000862:	cc0f      	ldmia	r4!, {r0, r1, r2, r3}
 8000864:	c50f      	stmia	r5!, {r0, r1, r2, r3}
 8000866:	e894 000f 	ldmia.w	r4, {r0, r1, r2, r3}
 800086a:	e885 000f 	stmia.w	r5, {r0, r1, r2, r3}
 800086e:	e896 000f 	ldmia.w	r6, {r0, r1, r2, r3}
 8000872:	f000 f88b 	bl	800098c <vUARTSend>
    }

    status = xQueueReceive(queue_handle, &receive_data, block_time);
 8000876:	4b35      	ldr	r3, [pc, #212]	; (800094c <receiverTask+0x1d0>)
 8000878:	681b      	ldr	r3, [r3, #0]
 800087a:	f107 0108 	add.w	r1, r7, #8
 800087e:	697a      	ldr	r2, [r7, #20]
 8000880:	4618      	mov	r0, r3
 8000882:	f002 f833 	bl	80028ec <xQueueReceive>
 8000886:	60f8      	str	r0, [r7, #12]
    if (status == pdPASS)
 8000888:	68fb      	ldr	r3, [r7, #12]
 800088a:	2b01      	cmp	r3, #1
 800088c:	f47f af7f 	bne.w	800078e <receiverTask+0x12>
    {
      PRINT_IN_TASK("Receive success!\r\n");
 8000890:	2264      	movs	r2, #100	; 0x64
 8000892:	2100      	movs	r1, #0
 8000894:	482b      	ldr	r0, [pc, #172]	; (8000944 <receiverTask+0x1c8>)
 8000896:	f004 f886 	bl	80049a6 <memset>
 800089a:	2000      	movs	r0, #0
 800089c:	f002 fd70 	bl	8003380 <pcTaskGetName>
 80008a0:	4602      	mov	r2, r0
 80008a2:	4b2d      	ldr	r3, [pc, #180]	; (8000958 <receiverTask+0x1dc>)
 80008a4:	492b      	ldr	r1, [pc, #172]	; (8000954 <receiverTask+0x1d8>)
 80008a6:	4827      	ldr	r0, [pc, #156]	; (8000944 <receiverTask+0x1c8>)
 80008a8:	f004 f886 	bl	80049b8 <siprintf>
 80008ac:	4e22      	ldr	r6, [pc, #136]	; (8000938 <receiverTask+0x1bc>)
 80008ae:	4b25      	ldr	r3, [pc, #148]	; (8000944 <receiverTask+0x1c8>)
 80008b0:	930c      	str	r3, [sp, #48]	; 0x30
 80008b2:	466d      	mov	r5, sp
 80008b4:	f106 0410 	add.w	r4, r6, #16
 80008b8:	cc0f      	ldmia	r4!, {r0, r1, r2, r3}
 80008ba:	c50f      	stmia	r5!, {r0, r1, r2, r3}
 80008bc:	cc0f      	ldmia	r4!, {r0, r1, r2, r3}
 80008be:	c50f      	stmia	r5!, {r0, r1, r2, r3}
 80008c0:	e894 000f 	ldmia.w	r4, {r0, r1, r2, r3}
 80008c4:	e885 000f 	stmia.w	r5, {r0, r1, r2, r3}
 80008c8:	e896 000f 	ldmia.w	r6, {r0, r1, r2, r3}
 80008cc:	f000 f85e 	bl	800098c <vUARTSend>
      PRINT_VAR_IN_TASK(receive_data);
 80008d0:	2264      	movs	r2, #100	; 0x64
 80008d2:	2100      	movs	r1, #0
 80008d4:	481b      	ldr	r0, [pc, #108]	; (8000944 <receiverTask+0x1c8>)
 80008d6:	f004 f866 	bl	80049a6 <memset>
 80008da:	2000      	movs	r0, #0
 80008dc:	f002 fd50 	bl	8003380 <pcTaskGetName>
 80008e0:	4602      	mov	r2, r0
 80008e2:	68bb      	ldr	r3, [r7, #8]
 80008e4:	491d      	ldr	r1, [pc, #116]	; (800095c <receiverTask+0x1e0>)
 80008e6:	4817      	ldr	r0, [pc, #92]	; (8000944 <receiverTask+0x1c8>)
 80008e8:	f004 f866 	bl	80049b8 <siprintf>
 80008ec:	4e12      	ldr	r6, [pc, #72]	; (8000938 <receiverTask+0x1bc>)
 80008ee:	4b15      	ldr	r3, [pc, #84]	; (8000944 <receiverTask+0x1c8>)
 80008f0:	930c      	str	r3, [sp, #48]	; 0x30
 80008f2:	466d      	mov	r5, sp
 80008f4:	f106 0410 	add.w	r4, r6, #16
 80008f8:	cc0f      	ldmia	r4!, {r0, r1, r2, r3}
 80008fa:	c50f      	stmia	r5!, {r0, r1, r2, r3}
 80008fc:	cc0f      	ldmia	r4!, {r0, r1, r2, r3}
 80008fe:	c50f      	stmia	r5!, {r0, r1, r2, r3}
 8000900:	e894 000f 	ldmia.w	r4, {r0, r1, r2, r3}
 8000904:	e885 000f 	stmia.w	r5, {r0, r1, r2, r3}
 8000908:	e896 000f 	ldmia.w	r6, {r0, r1, r2, r3}
 800090c:	f000 f83e 	bl	800098c <vUARTSend>
 8000910:	4e09      	ldr	r6, [pc, #36]	; (8000938 <receiverTask+0x1bc>)
 8000912:	4b0a      	ldr	r3, [pc, #40]	; (800093c <receiverTask+0x1c0>)
 8000914:	930c      	str	r3, [sp, #48]	; 0x30
 8000916:	466d      	mov	r5, sp
 8000918:	f106 0410 	add.w	r4, r6, #16
 800091c:	cc0f      	ldmia	r4!, {r0, r1, r2, r3}
 800091e:	c50f      	stmia	r5!, {r0, r1, r2, r3}
 8000920:	cc0f      	ldmia	r4!, {r0, r1, r2, r3}
 8000922:	c50f      	stmia	r5!, {r0, r1, r2, r3}
 8000924:	e894 000f 	ldmia.w	r4, {r0, r1, r2, r3}
 8000928:	e885 000f 	stmia.w	r5, {r0, r1, r2, r3}
 800092c:	e896 000f 	ldmia.w	r6, {r0, r1, r2, r3}
 8000930:	f000 f82c 	bl	800098c <vUARTSend>
    newline;
 8000934:	e72b      	b.n	800078e <receiverTask+0x12>
 8000936:	bf00      	nop
 8000938:	20001d2c 	.word	0x20001d2c
 800093c:	0800529c 	.word	0x0800529c
 8000940:	200000a0 	.word	0x200000a0
 8000944:	20001cbc 	.word	0x20001cbc
 8000948:	08005314 	.word	0x08005314
 800094c:	20000098 	.word	0x20000098
 8000950:	08005338 	.word	0x08005338
 8000954:	080052ec 	.word	0x080052ec
 8000958:	08005358 	.word	0x08005358
 800095c:	0800536c 	.word	0x0800536c

08000960 <haltCheckLedTask>:
* @param argument: Not used
* @retval None
*/
/* USER CODE END Header_haltCheckLedTask */
void haltCheckLedTask(void *argument)
{
 8000960:	b580      	push	{r7, lr}
 8000962:	b082      	sub	sp, #8
 8000964:	af00      	add	r7, sp, #0
 8000966:	6078      	str	r0, [r7, #4]
  /* USER CODE BEGIN haltCheckLedTask */
  /* Infinite loop */
  for (;;)
  {
    toggleLed4; /* Led check chip halted */
 8000968:	f44f 7180 	mov.w	r1, #256	; 0x100
 800096c:	4803      	ldr	r0, [pc, #12]	; (800097c <haltCheckLedTask+0x1c>)
 800096e:	f000 fc11 	bl	8001194 <HAL_GPIO_TogglePin>
    osDelay(1000);
 8000972:	f44f 707a 	mov.w	r0, #1000	; 0x3e8
 8000976:	f001 fb5b 	bl	8002030 <osDelay>
    toggleLed4; /* Led check chip halted */
 800097a:	e7f5      	b.n	8000968 <haltCheckLedTask+0x8>
 800097c:	40010c00 	.word	0x40010c00

08000980 <Error_Handler>:
/**
  * @brief  This function is executed in case of error occurrence.
  * @retval None
  */
void Error_Handler(void)
{
 8000980:	b480      	push	{r7}
 8000982:	af00      	add	r7, sp, #0
  /* USER CODE BEGIN Error_Handler_Debug */
  /* User can add his own implementation to report the HAL error return state */

  /* USER CODE END Error_Handler_Debug */
}
 8000984:	bf00      	nop
 8000986:	46bd      	mov	sp, r7
 8000988:	bc80      	pop	{r7}
 800098a:	4770      	bx	lr

0800098c <vUARTSend>:
#include "myLib.h"

#if defined(configHAL_UART)
void vUARTSend(UART_HandleTypeDef huart, uint8_t *String)
{
 800098c:	b084      	sub	sp, #16
 800098e:	b580      	push	{r7, lr}
 8000990:	af00      	add	r7, sp, #0
 8000992:	f107 0c08 	add.w	ip, r7, #8
 8000996:	e88c 000f 	stmia.w	ip, {r0, r1, r2, r3}
	HAL_UART_Transmit(&huart, (uint8_t *)String, strlen((char *)String), HAL_MAX_DELAY);
 800099a:	6cb8      	ldr	r0, [r7, #72]	; 0x48
 800099c:	f7ff fbd8 	bl	8000150 <strlen>
 80009a0:	4603      	mov	r3, r0
 80009a2:	b29a      	uxth	r2, r3
 80009a4:	f04f 33ff 	mov.w	r3, #4294967295
 80009a8:	6cb9      	ldr	r1, [r7, #72]	; 0x48
 80009aa:	f107 0008 	add.w	r0, r7, #8
 80009ae:	f001 f872 	bl	8001a96 <HAL_UART_Transmit>
}
 80009b2:	bf00      	nop
 80009b4:	46bd      	mov	sp, r7
 80009b6:	e8bd 4080 	ldmia.w	sp!, {r7, lr}
 80009ba:	b004      	add	sp, #16
 80009bc:	4770      	bx	lr
	...

080009c0 <HAL_MspInit>:
 80009c0:	b480      	push	{r7}
 80009c2:	b085      	sub	sp, #20
 80009c4:	af00      	add	r7, sp, #0
 80009c6:	4b15      	ldr	r3, [pc, #84]	; (8000a1c <HAL_MspInit+0x5c>)
 80009c8:	699b      	ldr	r3, [r3, #24]
 80009ca:	4a14      	ldr	r2, [pc, #80]	; (8000a1c <HAL_MspInit+0x5c>)
 80009cc:	f043 0301 	orr.w	r3, r3, #1
 80009d0:	6193      	str	r3, [r2, #24]
 80009d2:	4b12      	ldr	r3, [pc, #72]	; (8000a1c <HAL_MspInit+0x5c>)
 80009d4:	699b      	ldr	r3, [r3, #24]
 80009d6:	f003 0301 	and.w	r3, r3, #1
 80009da:	60bb      	str	r3, [r7, #8]
 80009dc:	68bb      	ldr	r3, [r7, #8]
 80009de:	4b0f      	ldr	r3, [pc, #60]	; (8000a1c <HAL_MspInit+0x5c>)
 80009e0:	69db      	ldr	r3, [r3, #28]
 80009e2:	4a0e      	ldr	r2, [pc, #56]	; (8000a1c <HAL_MspInit+0x5c>)
 80009e4:	f043 5380 	orr.w	r3, r3, #268435456	; 0x10000000
 80009e8:	61d3      	str	r3, [r2, #28]
 80009ea:	4b0c      	ldr	r3, [pc, #48]	; (8000a1c <HAL_MspInit+0x5c>)
 80009ec:	69db      	ldr	r3, [r3, #28]
 80009ee:	f003 5380 	and.w	r3, r3, #268435456	; 0x10000000
 80009f2:	607b      	str	r3, [r7, #4]
 80009f4:	687b      	ldr	r3, [r7, #4]
 80009f6:	4b0a      	ldr	r3, [pc, #40]	; (8000a20 <HAL_MspInit+0x60>)
 80009f8:	685b      	ldr	r3, [r3, #4]
 80009fa:	60fb      	str	r3, [r7, #12]
 80009fc:	68fb      	ldr	r3, [r7, #12]
 80009fe:	f023 63e0 	bic.w	r3, r3, #117440512	; 0x7000000
 8000a02:	60fb      	str	r3, [r7, #12]
 8000a04:	68fb      	ldr	r3, [r7, #12]
 8000a06:	f043 7300 	orr.w	r3, r3, #33554432	; 0x2000000
 8000a0a:	60fb      	str	r3, [r7, #12]
 8000a0c:	4a04      	ldr	r2, [pc, #16]	; (8000a20 <HAL_MspInit+0x60>)
 8000a0e:	68fb      	ldr	r3, [r7, #12]
 8000a10:	6053      	str	r3, [r2, #4]
 8000a12:	bf00      	nop
 8000a14:	3714      	adds	r7, #20
 8000a16:	46bd      	mov	sp, r7
 8000a18:	bc80      	pop	{r7}
 8000a1a:	4770      	bx	lr
 8000a1c:	40021000 	.word	0x40021000
 8000a20:	40010000 	.word	0x40010000

08000a24 <HAL_UART_MspInit>:
 8000a24:	b580      	push	{r7, lr}
 8000a26:	b088      	sub	sp, #32
 8000a28:	af00      	add	r7, sp, #0
 8000a2a:	6078      	str	r0, [r7, #4]
 8000a2c:	f107 0310 	add.w	r3, r7, #16
 8000a30:	2200      	movs	r2, #0
 8000a32:	601a      	str	r2, [r3, #0]
 8000a34:	605a      	str	r2, [r3, #4]
 8000a36:	609a      	str	r2, [r3, #8]
 8000a38:	60da      	str	r2, [r3, #12]
 8000a3a:	687b      	ldr	r3, [r7, #4]
 8000a3c:	681b      	ldr	r3, [r3, #0]
 8000a3e:	4a1b      	ldr	r2, [pc, #108]	; (8000aac <HAL_UART_MspInit+0x88>)
 8000a40:	4293      	cmp	r3, r2
 8000a42:	d12f      	bne.n	8000aa4 <HAL_UART_MspInit+0x80>
 8000a44:	4b1a      	ldr	r3, [pc, #104]	; (8000ab0 <HAL_UART_MspInit+0x8c>)
 8000a46:	69db      	ldr	r3, [r3, #28]
 8000a48:	4a19      	ldr	r2, [pc, #100]	; (8000ab0 <HAL_UART_MspInit+0x8c>)
 8000a4a:	f443 3300 	orr.w	r3, r3, #131072	; 0x20000
 8000a4e:	61d3      	str	r3, [r2, #28]
 8000a50:	4b17      	ldr	r3, [pc, #92]	; (8000ab0 <HAL_UART_MspInit+0x8c>)
 8000a52:	69db      	ldr	r3, [r3, #28]
 8000a54:	f403 3300 	and.w	r3, r3, #131072	; 0x20000
 8000a58:	60fb      	str	r3, [r7, #12]
 8000a5a:	68fb      	ldr	r3, [r7, #12]
 8000a5c:	4b14      	ldr	r3, [pc, #80]	; (8000ab0 <HAL_UART_MspInit+0x8c>)
 8000a5e:	699b      	ldr	r3, [r3, #24]
 8000a60:	4a13      	ldr	r2, [pc, #76]	; (8000ab0 <HAL_UART_MspInit+0x8c>)
 8000a62:	f043 0304 	orr.w	r3, r3, #4
 8000a66:	6193      	str	r3, [r2, #24]
 8000a68:	4b11      	ldr	r3, [pc, #68]	; (8000ab0 <HAL_UART_MspInit+0x8c>)
 8000a6a:	699b      	ldr	r3, [r3, #24]
 8000a6c:	f003 0304 	and.w	r3, r3, #4
 8000a70:	60bb      	str	r3, [r7, #8]
 8000a72:	68bb      	ldr	r3, [r7, #8]
 8000a74:	2304      	movs	r3, #4
 8000a76:	613b      	str	r3, [r7, #16]
 8000a78:	2302      	movs	r3, #2
 8000a7a:	617b      	str	r3, [r7, #20]
 8000a7c:	2303      	movs	r3, #3
 8000a7e:	61fb      	str	r3, [r7, #28]
 8000a80:	f107 0310 	add.w	r3, r7, #16
 8000a84:	4619      	mov	r1, r3
 8000a86:	480b      	ldr	r0, [pc, #44]	; (8000ab4 <HAL_UART_MspInit+0x90>)
 8000a88:	f000 fa12 	bl	8000eb0 <HAL_GPIO_Init>
 8000a8c:	2308      	movs	r3, #8
 8000a8e:	613b      	str	r3, [r7, #16]
 8000a90:	2300      	movs	r3, #0
 8000a92:	617b      	str	r3, [r7, #20]
 8000a94:	2300      	movs	r3, #0
 8000a96:	61bb      	str	r3, [r7, #24]
 8000a98:	f107 0310 	add.w	r3, r7, #16
 8000a9c:	4619      	mov	r1, r3
 8000a9e:	4805      	ldr	r0, [pc, #20]	; (8000ab4 <HAL_UART_MspInit+0x90>)
 8000aa0:	f000 fa06 	bl	8000eb0 <HAL_GPIO_Init>
 8000aa4:	bf00      	nop
 8000aa6:	3720      	adds	r7, #32
 8000aa8:	46bd      	mov	sp, r7
 8000aaa:	bd80      	pop	{r7, pc}
 8000aac:	40004400 	.word	0x40004400
 8000ab0:	40021000 	.word	0x40021000
 8000ab4:	40010800 	.word	0x40010800

08000ab8 <NMI_Handler>:
 8000ab8:	b480      	push	{r7}
 8000aba:	af00      	add	r7, sp, #0
 8000abc:	bf00      	nop
 8000abe:	46bd      	mov	sp, r7
 8000ac0:	bc80      	pop	{r7}
 8000ac2:	4770      	bx	lr

08000ac4 <HardFault_Handler>:
 8000ac4:	b480      	push	{r7}
 8000ac6:	af00      	add	r7, sp, #0
 8000ac8:	e7fe      	b.n	8000ac8 <HardFault_Handler+0x4>

08000aca <MemManage_Handler>:
 8000aca:	b480      	push	{r7}
 8000acc:	af00      	add	r7, sp, #0
 8000ace:	e7fe      	b.n	8000ace <MemManage_Handler+0x4>

08000ad0 <BusFault_Handler>:
 8000ad0:	b480      	push	{r7}
 8000ad2:	af00      	add	r7, sp, #0
 8000ad4:	e7fe      	b.n	8000ad4 <BusFault_Handler+0x4>

08000ad6 <UsageFault_Handler>:
 8000ad6:	b480      	push	{r7}
 8000ad8:	af00      	add	r7, sp, #0
 8000ada:	e7fe      	b.n	8000ada <UsageFault_Handler+0x4>

08000adc <DebugMon_Handler>:
 8000adc:	b480      	push	{r7}
 8000ade:	af00      	add	r7, sp, #0
 8000ae0:	bf00      	nop
 8000ae2:	46bd      	mov	sp, r7
 8000ae4:	bc80      	pop	{r7}
 8000ae6:	4770      	bx	lr

08000ae8 <SysTick_Handler>:
 8000ae8:	b580      	push	{r7, lr}
 8000aea:	af00      	add	r7, sp, #0
 8000aec:	f000 f8e0 	bl	8000cb0 <HAL_IncTick>
 8000af0:	f002 ff8a 	bl	8003a08 <xTaskGetSchedulerState>
 8000af4:	4603      	mov	r3, r0
 8000af6:	2b01      	cmp	r3, #1
 8000af8:	d001      	beq.n	8000afe <SysTick_Handler+0x16>
 8000afa:	f003 fccd 	bl	8004498 <xPortSysTickHandler>
 8000afe:	bf00      	nop
 8000b00:	bd80      	pop	{r7, pc}
	...

08000b04 <_sbrk>:
 8000b04:	b580      	push	{r7, lr}
 8000b06:	b086      	sub	sp, #24
 8000b08:	af00      	add	r7, sp, #0
 8000b0a:	6078      	str	r0, [r7, #4]
 8000b0c:	4a14      	ldr	r2, [pc, #80]	; (8000b60 <_sbrk+0x5c>)
 8000b0e:	4b15      	ldr	r3, [pc, #84]	; (8000b64 <_sbrk+0x60>)
 8000b10:	1ad3      	subs	r3, r2, r3
 8000b12:	617b      	str	r3, [r7, #20]
 8000b14:	697b      	ldr	r3, [r7, #20]
 8000b16:	613b      	str	r3, [r7, #16]
 8000b18:	4b13      	ldr	r3, [pc, #76]	; (8000b68 <_sbrk+0x64>)
 8000b1a:	681b      	ldr	r3, [r3, #0]
 8000b1c:	2b00      	cmp	r3, #0
 8000b1e:	d102      	bne.n	8000b26 <_sbrk+0x22>
 8000b20:	4b11      	ldr	r3, [pc, #68]	; (8000b68 <_sbrk+0x64>)
 8000b22:	4a12      	ldr	r2, [pc, #72]	; (8000b6c <_sbrk+0x68>)
 8000b24:	601a      	str	r2, [r3, #0]
 8000b26:	4b10      	ldr	r3, [pc, #64]	; (8000b68 <_sbrk+0x64>)
 8000b28:	681a      	ldr	r2, [r3, #0]
 8000b2a:	687b      	ldr	r3, [r7, #4]
 8000b2c:	4413      	add	r3, r2
 8000b2e:	693a      	ldr	r2, [r7, #16]
 8000b30:	429a      	cmp	r2, r3
 8000b32:	d207      	bcs.n	8000b44 <_sbrk+0x40>
 8000b34:	f003 ff02 	bl	800493c <__errno>
 8000b38:	4602      	mov	r2, r0
 8000b3a:	230c      	movs	r3, #12
 8000b3c:	6013      	str	r3, [r2, #0]
 8000b3e:	f04f 33ff 	mov.w	r3, #4294967295
 8000b42:	e009      	b.n	8000b58 <_sbrk+0x54>
 8000b44:	4b08      	ldr	r3, [pc, #32]	; (8000b68 <_sbrk+0x64>)
 8000b46:	681b      	ldr	r3, [r3, #0]
 8000b48:	60fb      	str	r3, [r7, #12]
 8000b4a:	4b07      	ldr	r3, [pc, #28]	; (8000b68 <_sbrk+0x64>)
 8000b4c:	681a      	ldr	r2, [r3, #0]
 8000b4e:	687b      	ldr	r3, [r7, #4]
 8000b50:	4413      	add	r3, r2
 8000b52:	4a05      	ldr	r2, [pc, #20]	; (8000b68 <_sbrk+0x64>)
 8000b54:	6013      	str	r3, [r2, #0]
 8000b56:	68fb      	ldr	r3, [r7, #12]
 8000b58:	4618      	mov	r0, r3
 8000b5a:	3718      	adds	r7, #24
 8000b5c:	46bd      	mov	sp, r7
 8000b5e:	bd80      	pop	{r7, pc}
 8000b60:	20005000 	.word	0x20005000
 8000b64:	00000400 	.word	0x00000400
 8000b68:	200000a4 	.word	0x200000a4
 8000b6c:	20001db8 	.word	0x20001db8

08000b70 <SystemInit>:
 8000b70:	b480      	push	{r7}
 8000b72:	af00      	add	r7, sp, #0
 8000b74:	4b15      	ldr	r3, [pc, #84]	; (8000bcc <SystemInit+0x5c>)
 8000b76:	681b      	ldr	r3, [r3, #0]
 8000b78:	4a14      	ldr	r2, [pc, #80]	; (8000bcc <SystemInit+0x5c>)
 8000b7a:	f043 0301 	orr.w	r3, r3, #1
 8000b7e:	6013      	str	r3, [r2, #0]
 8000b80:	4b12      	ldr	r3, [pc, #72]	; (8000bcc <SystemInit+0x5c>)
 8000b82:	685a      	ldr	r2, [r3, #4]
 8000b84:	4911      	ldr	r1, [pc, #68]	; (8000bcc <SystemInit+0x5c>)
 8000b86:	4b12      	ldr	r3, [pc, #72]	; (8000bd0 <SystemInit+0x60>)
 8000b88:	4013      	ands	r3, r2
 8000b8a:	604b      	str	r3, [r1, #4]
 8000b8c:	4b0f      	ldr	r3, [pc, #60]	; (8000bcc <SystemInit+0x5c>)
 8000b8e:	681b      	ldr	r3, [r3, #0]
 8000b90:	4a0e      	ldr	r2, [pc, #56]	; (8000bcc <SystemInit+0x5c>)
 8000b92:	f023 7384 	bic.w	r3, r3, #17301504	; 0x1080000
 8000b96:	f423 3380 	bic.w	r3, r3, #65536	; 0x10000
 8000b9a:	6013      	str	r3, [r2, #0]
 8000b9c:	4b0b      	ldr	r3, [pc, #44]	; (8000bcc <SystemInit+0x5c>)
 8000b9e:	681b      	ldr	r3, [r3, #0]
 8000ba0:	4a0a      	ldr	r2, [pc, #40]	; (8000bcc <SystemInit+0x5c>)
 8000ba2:	f423 2380 	bic.w	r3, r3, #262144	; 0x40000
 8000ba6:	6013      	str	r3, [r2, #0]
 8000ba8:	4b08      	ldr	r3, [pc, #32]	; (8000bcc <SystemInit+0x5c>)
 8000baa:	685b      	ldr	r3, [r3, #4]
 8000bac:	4a07      	ldr	r2, [pc, #28]	; (8000bcc <SystemInit+0x5c>)
 8000bae:	f423 03fe 	bic.w	r3, r3, #8323072	; 0x7f0000
 8000bb2:	6053      	str	r3, [r2, #4]
 8000bb4:	4b05      	ldr	r3, [pc, #20]	; (8000bcc <SystemInit+0x5c>)
 8000bb6:	f44f 021f 	mov.w	r2, #10420224	; 0x9f0000
 8000bba:	609a      	str	r2, [r3, #8]
 8000bbc:	4b05      	ldr	r3, [pc, #20]	; (8000bd4 <SystemInit+0x64>)
 8000bbe:	f04f 6200 	mov.w	r2, #134217728	; 0x8000000
 8000bc2:	609a      	str	r2, [r3, #8]
 8000bc4:	bf00      	nop
 8000bc6:	46bd      	mov	sp, r7
 8000bc8:	bc80      	pop	{r7}
 8000bca:	4770      	bx	lr
 8000bcc:	40021000 	.word	0x40021000
 8000bd0:	f8ff0000 	.word	0xf8ff0000
 8000bd4:	e000ed00 	.word	0xe000ed00

08000bd8 <Reset_Handler>:
 8000bd8:	2100      	movs	r1, #0
 8000bda:	e003      	b.n	8000be4 <LoopCopyDataInit>

08000bdc <CopyDataInit>:
 8000bdc:	4b0b      	ldr	r3, [pc, #44]	; (8000c0c <LoopFillZerobss+0x14>)
 8000bde:	585b      	ldr	r3, [r3, r1]
 8000be0:	5043      	str	r3, [r0, r1]
 8000be2:	3104      	adds	r1, #4

08000be4 <LoopCopyDataInit>:
 8000be4:	480a      	ldr	r0, [pc, #40]	; (8000c10 <LoopFillZerobss+0x18>)
 8000be6:	4b0b      	ldr	r3, [pc, #44]	; (8000c14 <LoopFillZerobss+0x1c>)
 8000be8:	1842      	adds	r2, r0, r1
 8000bea:	429a      	cmp	r2, r3
 8000bec:	d3f6      	bcc.n	8000bdc <CopyDataInit>
 8000bee:	4a0a      	ldr	r2, [pc, #40]	; (8000c18 <LoopFillZerobss+0x20>)
 8000bf0:	e002      	b.n	8000bf8 <LoopFillZerobss>

08000bf2 <FillZerobss>:
 8000bf2:	2300      	movs	r3, #0
 8000bf4:	f842 3b04 	str.w	r3, [r2], #4

08000bf8 <LoopFillZerobss>:
 8000bf8:	4b08      	ldr	r3, [pc, #32]	; (8000c1c <LoopFillZerobss+0x24>)
 8000bfa:	429a      	cmp	r2, r3
 8000bfc:	d3f9      	bcc.n	8000bf2 <FillZerobss>
 8000bfe:	f7ff ffb7 	bl	8000b70 <SystemInit>
 8000c02:	f003 fea1 	bl	8004948 <__libc_init_array>
 8000c06:	f7ff faab 	bl	8000160 <main>
 8000c0a:	4770      	bx	lr
 8000c0c:	0800547c 	.word	0x0800547c
 8000c10:	20000000 	.word	0x20000000
 8000c14:	2000007c 	.word	0x2000007c
 8000c18:	2000007c 	.word	0x2000007c
 8000c1c:	20001db4 	.word	0x20001db4

08000c20 <ADC1_2_IRQHandler>:
 8000c20:	e7fe      	b.n	8000c20 <ADC1_2_IRQHandler>
	...

08000c24 <HAL_Init>:
 8000c24:	b580      	push	{r7, lr}
 8000c26:	af00      	add	r7, sp, #0
 8000c28:	4b08      	ldr	r3, [pc, #32]	; (8000c4c <HAL_Init+0x28>)
 8000c2a:	681b      	ldr	r3, [r3, #0]
 8000c2c:	4a07      	ldr	r2, [pc, #28]	; (8000c4c <HAL_Init+0x28>)
 8000c2e:	f043 0310 	orr.w	r3, r3, #16
 8000c32:	6013      	str	r3, [r2, #0]
 8000c34:	2003      	movs	r0, #3
 8000c36:	f000 f907 	bl	8000e48 <HAL_NVIC_SetPriorityGrouping>
 8000c3a:	2000      	movs	r0, #0
 8000c3c:	f000 f808 	bl	8000c50 <HAL_InitTick>
 8000c40:	f7ff febe 	bl	80009c0 <HAL_MspInit>
 8000c44:	2300      	movs	r3, #0
 8000c46:	4618      	mov	r0, r3
 8000c48:	bd80      	pop	{r7, pc}
 8000c4a:	bf00      	nop
 8000c4c:	40022000 	.word	0x40022000

08000c50 <HAL_InitTick>:
 8000c50:	b580      	push	{r7, lr}
 8000c52:	b082      	sub	sp, #8
 8000c54:	af00      	add	r7, sp, #0
 8000c56:	6078      	str	r0, [r7, #4]
 8000c58:	4b12      	ldr	r3, [pc, #72]	; (8000ca4 <HAL_InitTick+0x54>)
 8000c5a:	681a      	ldr	r2, [r3, #0]
 8000c5c:	4b12      	ldr	r3, [pc, #72]	; (8000ca8 <HAL_InitTick+0x58>)
 8000c5e:	781b      	ldrb	r3, [r3, #0]
 8000c60:	4619      	mov	r1, r3
 8000c62:	f44f 737a 	mov.w	r3, #1000	; 0x3e8
 8000c66:	fbb3 f3f1 	udiv	r3, r3, r1
 8000c6a:	fbb2 f3f3 	udiv	r3, r2, r3
 8000c6e:	4618      	mov	r0, r3
 8000c70:	f000 f911 	bl	8000e96 <HAL_SYSTICK_Config>
 8000c74:	4603      	mov	r3, r0
 8000c76:	2b00      	cmp	r3, #0
 8000c78:	d001      	beq.n	8000c7e <HAL_InitTick+0x2e>
 8000c7a:	2301      	movs	r3, #1
 8000c7c:	e00e      	b.n	8000c9c <HAL_InitTick+0x4c>
 8000c7e:	687b      	ldr	r3, [r7, #4]
 8000c80:	2b0f      	cmp	r3, #15
 8000c82:	d80a      	bhi.n	8000c9a <HAL_InitTick+0x4a>
 8000c84:	2200      	movs	r2, #0
 8000c86:	6879      	ldr	r1, [r7, #4]
 8000c88:	f04f 30ff 	mov.w	r0, #4294967295
 8000c8c:	f000 f8e7 	bl	8000e5e <HAL_NVIC_SetPriority>
 8000c90:	4a06      	ldr	r2, [pc, #24]	; (8000cac <HAL_InitTick+0x5c>)
 8000c92:	687b      	ldr	r3, [r7, #4]
 8000c94:	6013      	str	r3, [r2, #0]
 8000c96:	2300      	movs	r3, #0
 8000c98:	e000      	b.n	8000c9c <HAL_InitTick+0x4c>
 8000c9a:	2301      	movs	r3, #1
 8000c9c:	4618      	mov	r0, r3
 8000c9e:	3708      	adds	r7, #8
 8000ca0:	46bd      	mov	sp, r7
 8000ca2:	bd80      	pop	{r7, pc}
 8000ca4:	20000008 	.word	0x20000008
 8000ca8:	20000010 	.word	0x20000010
 8000cac:	2000000c 	.word	0x2000000c

08000cb0 <HAL_IncTick>:
 8000cb0:	b480      	push	{r7}
 8000cb2:	af00      	add	r7, sp, #0
 8000cb4:	4b05      	ldr	r3, [pc, #20]	; (8000ccc <HAL_IncTick+0x1c>)
 8000cb6:	781b      	ldrb	r3, [r3, #0]
 8000cb8:	461a      	mov	r2, r3
 8000cba:	4b05      	ldr	r3, [pc, #20]	; (8000cd0 <HAL_IncTick+0x20>)
 8000cbc:	681b      	ldr	r3, [r3, #0]
 8000cbe:	4413      	add	r3, r2
 8000cc0:	4a03      	ldr	r2, [pc, #12]	; (8000cd0 <HAL_IncTick+0x20>)
 8000cc2:	6013      	str	r3, [r2, #0]
 8000cc4:	bf00      	nop
 8000cc6:	46bd      	mov	sp, r7
 8000cc8:	bc80      	pop	{r7}
 8000cca:	4770      	bx	lr
 8000ccc:	20000010 	.word	0x20000010
 8000cd0:	20001d6c 	.word	0x20001d6c

08000cd4 <HAL_GetTick>:
 8000cd4:	b480      	push	{r7}
 8000cd6:	af00      	add	r7, sp, #0
 8000cd8:	4b02      	ldr	r3, [pc, #8]	; (8000ce4 <HAL_GetTick+0x10>)
 8000cda:	681b      	ldr	r3, [r3, #0]
 8000cdc:	4618      	mov	r0, r3
 8000cde:	46bd      	mov	sp, r7
 8000ce0:	bc80      	pop	{r7}
 8000ce2:	4770      	bx	lr
 8000ce4:	20001d6c 	.word	0x20001d6c

08000ce8 <__NVIC_SetPriorityGrouping>:
 8000ce8:	b480      	push	{r7}
 8000cea:	b085      	sub	sp, #20
 8000cec:	af00      	add	r7, sp, #0
 8000cee:	6078      	str	r0, [r7, #4]
 8000cf0:	687b      	ldr	r3, [r7, #4]
 8000cf2:	f003 0307 	and.w	r3, r3, #7
 8000cf6:	60fb      	str	r3, [r7, #12]
 8000cf8:	4b0c      	ldr	r3, [pc, #48]	; (8000d2c <__NVIC_SetPriorityGrouping+0x44>)
 8000cfa:	68db      	ldr	r3, [r3, #12]
 8000cfc:	60bb      	str	r3, [r7, #8]
 8000cfe:	68ba      	ldr	r2, [r7, #8]
 8000d00:	f64f 03ff 	movw	r3, #63743	; 0xf8ff
 8000d04:	4013      	ands	r3, r2
 8000d06:	60bb      	str	r3, [r7, #8]
 8000d08:	68fb      	ldr	r3, [r7, #12]
 8000d0a:	021a      	lsls	r2, r3, #8
 8000d0c:	68bb      	ldr	r3, [r7, #8]
 8000d0e:	4313      	orrs	r3, r2
 8000d10:	f043 63bf 	orr.w	r3, r3, #100139008	; 0x5f80000
 8000d14:	f443 3300 	orr.w	r3, r3, #131072	; 0x20000
 8000d18:	60bb      	str	r3, [r7, #8]
 8000d1a:	4a04      	ldr	r2, [pc, #16]	; (8000d2c <__NVIC_SetPriorityGrouping+0x44>)
 8000d1c:	68bb      	ldr	r3, [r7, #8]
 8000d1e:	60d3      	str	r3, [r2, #12]
 8000d20:	bf00      	nop
 8000d22:	3714      	adds	r7, #20
 8000d24:	46bd      	mov	sp, r7
 8000d26:	bc80      	pop	{r7}
 8000d28:	4770      	bx	lr
 8000d2a:	bf00      	nop
 8000d2c:	e000ed00 	.word	0xe000ed00

08000d30 <__NVIC_GetPriorityGrouping>:
 8000d30:	b480      	push	{r7}
 8000d32:	af00      	add	r7, sp, #0
 8000d34:	4b04      	ldr	r3, [pc, #16]	; (8000d48 <__NVIC_GetPriorityGrouping+0x18>)
 8000d36:	68db      	ldr	r3, [r3, #12]
 8000d38:	0a1b      	lsrs	r3, r3, #8
 8000d3a:	f003 0307 	and.w	r3, r3, #7
 8000d3e:	4618      	mov	r0, r3
 8000d40:	46bd      	mov	sp, r7
 8000d42:	bc80      	pop	{r7}
 8000d44:	4770      	bx	lr
 8000d46:	bf00      	nop
 8000d48:	e000ed00 	.word	0xe000ed00

08000d4c <__NVIC_SetPriority>:
 8000d4c:	b480      	push	{r7}
 8000d4e:	b083      	sub	sp, #12
 8000d50:	af00      	add	r7, sp, #0
 8000d52:	4603      	mov	r3, r0
 8000d54:	6039      	str	r1, [r7, #0]
 8000d56:	71fb      	strb	r3, [r7, #7]
 8000d58:	f997 3007 	ldrsb.w	r3, [r7, #7]
 8000d5c:	2b00      	cmp	r3, #0
 8000d5e:	db0a      	blt.n	8000d76 <__NVIC_SetPriority+0x2a>
 8000d60:	683b      	ldr	r3, [r7, #0]
 8000d62:	b2da      	uxtb	r2, r3
 8000d64:	490c      	ldr	r1, [pc, #48]	; (8000d98 <__NVIC_SetPriority+0x4c>)
 8000d66:	f997 3007 	ldrsb.w	r3, [r7, #7]
 8000d6a:	0112      	lsls	r2, r2, #4
 8000d6c:	b2d2      	uxtb	r2, r2
 8000d6e:	440b      	add	r3, r1
 8000d70:	f883 2300 	strb.w	r2, [r3, #768]	; 0x300
 8000d74:	e00a      	b.n	8000d8c <__NVIC_SetPriority+0x40>
 8000d76:	683b      	ldr	r3, [r7, #0]
 8000d78:	b2da      	uxtb	r2, r3
 8000d7a:	4908      	ldr	r1, [pc, #32]	; (8000d9c <__NVIC_SetPriority+0x50>)
 8000d7c:	79fb      	ldrb	r3, [r7, #7]
 8000d7e:	f003 030f 	and.w	r3, r3, #15
 8000d82:	3b04      	subs	r3, #4
 8000d84:	0112      	lsls	r2, r2, #4
 8000d86:	b2d2      	uxtb	r2, r2
 8000d88:	440b      	add	r3, r1
 8000d8a:	761a      	strb	r2, [r3, #24]
 8000d8c:	bf00      	nop
 8000d8e:	370c      	adds	r7, #12
 8000d90:	46bd      	mov	sp, r7
 8000d92:	bc80      	pop	{r7}
 8000d94:	4770      	bx	lr
 8000d96:	bf00      	nop
 8000d98:	e000e100 	.word	0xe000e100
 8000d9c:	e000ed00 	.word	0xe000ed00

08000da0 <NVIC_EncodePriority>:
 8000da0:	b480      	push	{r7}
 8000da2:	b089      	sub	sp, #36	; 0x24
 8000da4:	af00      	add	r7, sp, #0
 8000da6:	60f8      	str	r0, [r7, #12]
 8000da8:	60b9      	str	r1, [r7, #8]
 8000daa:	607a      	str	r2, [r7, #4]
 8000dac:	68fb      	ldr	r3, [r7, #12]
 8000dae:	f003 0307 	and.w	r3, r3, #7
 8000db2:	61fb      	str	r3, [r7, #28]
 8000db4:	69fb      	ldr	r3, [r7, #28]
 8000db6:	f1c3 0307 	rsb	r3, r3, #7
 8000dba:	2b04      	cmp	r3, #4
 8000dbc:	bf28      	it	cs
 8000dbe:	2304      	movcs	r3, #4
 8000dc0:	61bb      	str	r3, [r7, #24]
 8000dc2:	69fb      	ldr	r3, [r7, #28]
 8000dc4:	3304      	adds	r3, #4
 8000dc6:	2b06      	cmp	r3, #6
 8000dc8:	d902      	bls.n	8000dd0 <NVIC_EncodePriority+0x30>
 8000dca:	69fb      	ldr	r3, [r7, #28]
 8000dcc:	3b03      	subs	r3, #3
 8000dce:	e000      	b.n	8000dd2 <NVIC_EncodePriority+0x32>
 8000dd0:	2300      	movs	r3, #0
 8000dd2:	617b      	str	r3, [r7, #20]
 8000dd4:	f04f 32ff 	mov.w	r2, #4294967295
 8000dd8:	69bb      	ldr	r3, [r7, #24]
 8000dda:	fa02 f303 	lsl.w	r3, r2, r3
 8000dde:	43da      	mvns	r2, r3
 8000de0:	68bb      	ldr	r3, [r7, #8]
 8000de2:	401a      	ands	r2, r3
 8000de4:	697b      	ldr	r3, [r7, #20]
 8000de6:	409a      	lsls	r2, r3
 8000de8:	f04f 31ff 	mov.w	r1, #4294967295
 8000dec:	697b      	ldr	r3, [r7, #20]
 8000dee:	fa01 f303 	lsl.w	r3, r1, r3
 8000df2:	43d9      	mvns	r1, r3
 8000df4:	687b      	ldr	r3, [r7, #4]
 8000df6:	400b      	ands	r3, r1
 8000df8:	4313      	orrs	r3, r2
 8000dfa:	4618      	mov	r0, r3
 8000dfc:	3724      	adds	r7, #36	; 0x24
 8000dfe:	46bd      	mov	sp, r7
 8000e00:	bc80      	pop	{r7}
 8000e02:	4770      	bx	lr

08000e04 <SysTick_Config>:
 8000e04:	b580      	push	{r7, lr}
 8000e06:	b082      	sub	sp, #8
 8000e08:	af00      	add	r7, sp, #0
 8000e0a:	6078      	str	r0, [r7, #4]
 8000e0c:	687b      	ldr	r3, [r7, #4]
 8000e0e:	3b01      	subs	r3, #1
 8000e10:	f1b3 7f80 	cmp.w	r3, #16777216	; 0x1000000
 8000e14:	d301      	bcc.n	8000e1a <SysTick_Config+0x16>
 8000e16:	2301      	movs	r3, #1
 8000e18:	e00f      	b.n	8000e3a <SysTick_Config+0x36>
 8000e1a:	4a0a      	ldr	r2, [pc, #40]	; (8000e44 <SysTick_Config+0x40>)
 8000e1c:	687b      	ldr	r3, [r7, #4]
 8000e1e:	3b01      	subs	r3, #1
 8000e20:	6053      	str	r3, [r2, #4]
 8000e22:	210f      	movs	r1, #15
 8000e24:	f04f 30ff 	mov.w	r0, #4294967295
 8000e28:	f7ff ff90 	bl	8000d4c <__NVIC_SetPriority>
 8000e2c:	4b05      	ldr	r3, [pc, #20]	; (8000e44 <SysTick_Config+0x40>)
 8000e2e:	2200      	movs	r2, #0
 8000e30:	609a      	str	r2, [r3, #8]
 8000e32:	4b04      	ldr	r3, [pc, #16]	; (8000e44 <SysTick_Config+0x40>)
 8000e34:	2207      	movs	r2, #7
 8000e36:	601a      	str	r2, [r3, #0]
 8000e38:	2300      	movs	r3, #0
 8000e3a:	4618      	mov	r0, r3
 8000e3c:	3708      	adds	r7, #8
 8000e3e:	46bd      	mov	sp, r7
 8000e40:	bd80      	pop	{r7, pc}
 8000e42:	bf00      	nop
 8000e44:	e000e010 	.word	0xe000e010

08000e48 <HAL_NVIC_SetPriorityGrouping>:
 8000e48:	b580      	push	{r7, lr}
 8000e4a:	b082      	sub	sp, #8
 8000e4c:	af00      	add	r7, sp, #0
 8000e4e:	6078      	str	r0, [r7, #4]
 8000e50:	6878      	ldr	r0, [r7, #4]
 8000e52:	f7ff ff49 	bl	8000ce8 <__NVIC_SetPriorityGrouping>
 8000e56:	bf00      	nop
 8000e58:	3708      	adds	r7, #8
 8000e5a:	46bd      	mov	sp, r7
 8000e5c:	bd80      	pop	{r7, pc}

08000e5e <HAL_NVIC_SetPriority>:
 8000e5e:	b580      	push	{r7, lr}
 8000e60:	b086      	sub	sp, #24
 8000e62:	af00      	add	r7, sp, #0
 8000e64:	4603      	mov	r3, r0
 8000e66:	60b9      	str	r1, [r7, #8]
 8000e68:	607a      	str	r2, [r7, #4]
 8000e6a:	73fb      	strb	r3, [r7, #15]
 8000e6c:	2300      	movs	r3, #0
 8000e6e:	617b      	str	r3, [r7, #20]
 8000e70:	f7ff ff5e 	bl	8000d30 <__NVIC_GetPriorityGrouping>
 8000e74:	6178      	str	r0, [r7, #20]
 8000e76:	687a      	ldr	r2, [r7, #4]
 8000e78:	68b9      	ldr	r1, [r7, #8]
 8000e7a:	6978      	ldr	r0, [r7, #20]
 8000e7c:	f7ff ff90 	bl	8000da0 <NVIC_EncodePriority>
 8000e80:	4602      	mov	r2, r0
 8000e82:	f997 300f 	ldrsb.w	r3, [r7, #15]
 8000e86:	4611      	mov	r1, r2
 8000e88:	4618      	mov	r0, r3
 8000e8a:	f7ff ff5f 	bl	8000d4c <__NVIC_SetPriority>
 8000e8e:	bf00      	nop
 8000e90:	3718      	adds	r7, #24
 8000e92:	46bd      	mov	sp, r7
 8000e94:	bd80      	pop	{r7, pc}

08000e96 <HAL_SYSTICK_Config>:
 8000e96:	b580      	push	{r7, lr}
 8000e98:	b082      	sub	sp, #8
 8000e9a:	af00      	add	r7, sp, #0
 8000e9c:	6078      	str	r0, [r7, #4]
 8000e9e:	6878      	ldr	r0, [r7, #4]
 8000ea0:	f7ff ffb0 	bl	8000e04 <SysTick_Config>
 8000ea4:	4603      	mov	r3, r0
 8000ea6:	4618      	mov	r0, r3
 8000ea8:	3708      	adds	r7, #8
 8000eaa:	46bd      	mov	sp, r7
 8000eac:	bd80      	pop	{r7, pc}
	...

08000eb0 <HAL_GPIO_Init>:
 8000eb0:	b480      	push	{r7}
 8000eb2:	b08b      	sub	sp, #44	; 0x2c
 8000eb4:	af00      	add	r7, sp, #0
 8000eb6:	6078      	str	r0, [r7, #4]
 8000eb8:	6039      	str	r1, [r7, #0]
 8000eba:	2300      	movs	r3, #0
 8000ebc:	627b      	str	r3, [r7, #36]	; 0x24
 8000ebe:	2300      	movs	r3, #0
 8000ec0:	623b      	str	r3, [r7, #32]
 8000ec2:	e127      	b.n	8001114 <HAL_GPIO_Init+0x264>
 8000ec4:	2201      	movs	r2, #1
 8000ec6:	6a7b      	ldr	r3, [r7, #36]	; 0x24
 8000ec8:	fa02 f303 	lsl.w	r3, r2, r3
 8000ecc:	61fb      	str	r3, [r7, #28]
 8000ece:	683b      	ldr	r3, [r7, #0]
 8000ed0:	681b      	ldr	r3, [r3, #0]
 8000ed2:	69fa      	ldr	r2, [r7, #28]
 8000ed4:	4013      	ands	r3, r2
 8000ed6:	61bb      	str	r3, [r7, #24]
 8000ed8:	69ba      	ldr	r2, [r7, #24]
 8000eda:	69fb      	ldr	r3, [r7, #28]
 8000edc:	429a      	cmp	r2, r3
 8000ede:	f040 8116 	bne.w	800110e <HAL_GPIO_Init+0x25e>
 8000ee2:	683b      	ldr	r3, [r7, #0]
 8000ee4:	685b      	ldr	r3, [r3, #4]
 8000ee6:	2b12      	cmp	r3, #18
 8000ee8:	d034      	beq.n	8000f54 <HAL_GPIO_Init+0xa4>
 8000eea:	2b12      	cmp	r3, #18
 8000eec:	d80d      	bhi.n	8000f0a <HAL_GPIO_Init+0x5a>
 8000eee:	2b02      	cmp	r3, #2
 8000ef0:	d02b      	beq.n	8000f4a <HAL_GPIO_Init+0x9a>
 8000ef2:	2b02      	cmp	r3, #2
 8000ef4:	d804      	bhi.n	8000f00 <HAL_GPIO_Init+0x50>
 8000ef6:	2b00      	cmp	r3, #0
 8000ef8:	d031      	beq.n	8000f5e <HAL_GPIO_Init+0xae>
 8000efa:	2b01      	cmp	r3, #1
 8000efc:	d01c      	beq.n	8000f38 <HAL_GPIO_Init+0x88>
 8000efe:	e048      	b.n	8000f92 <HAL_GPIO_Init+0xe2>
 8000f00:	2b03      	cmp	r3, #3
 8000f02:	d043      	beq.n	8000f8c <HAL_GPIO_Init+0xdc>
 8000f04:	2b11      	cmp	r3, #17
 8000f06:	d01b      	beq.n	8000f40 <HAL_GPIO_Init+0x90>
 8000f08:	e043      	b.n	8000f92 <HAL_GPIO_Init+0xe2>
 8000f0a:	4a89      	ldr	r2, [pc, #548]	; (8001130 <HAL_GPIO_Init+0x280>)
 8000f0c:	4293      	cmp	r3, r2
 8000f0e:	d026      	beq.n	8000f5e <HAL_GPIO_Init+0xae>
 8000f10:	4a87      	ldr	r2, [pc, #540]	; (8001130 <HAL_GPIO_Init+0x280>)
 8000f12:	4293      	cmp	r3, r2
 8000f14:	d806      	bhi.n	8000f24 <HAL_GPIO_Init+0x74>
 8000f16:	4a87      	ldr	r2, [pc, #540]	; (8001134 <HAL_GPIO_Init+0x284>)
 8000f18:	4293      	cmp	r3, r2
 8000f1a:	d020      	beq.n	8000f5e <HAL_GPIO_Init+0xae>
 8000f1c:	4a86      	ldr	r2, [pc, #536]	; (8001138 <HAL_GPIO_Init+0x288>)
 8000f1e:	4293      	cmp	r3, r2
 8000f20:	d01d      	beq.n	8000f5e <HAL_GPIO_Init+0xae>
 8000f22:	e036      	b.n	8000f92 <HAL_GPIO_Init+0xe2>
 8000f24:	4a85      	ldr	r2, [pc, #532]	; (800113c <HAL_GPIO_Init+0x28c>)
 8000f26:	4293      	cmp	r3, r2
 8000f28:	d019      	beq.n	8000f5e <HAL_GPIO_Init+0xae>
 8000f2a:	4a85      	ldr	r2, [pc, #532]	; (8001140 <HAL_GPIO_Init+0x290>)
 8000f2c:	4293      	cmp	r3, r2
 8000f2e:	d016      	beq.n	8000f5e <HAL_GPIO_Init+0xae>
 8000f30:	4a84      	ldr	r2, [pc, #528]	; (8001144 <HAL_GPIO_Init+0x294>)
 8000f32:	4293      	cmp	r3, r2
 8000f34:	d013      	beq.n	8000f5e <HAL_GPIO_Init+0xae>
 8000f36:	e02c      	b.n	8000f92 <HAL_GPIO_Init+0xe2>
 8000f38:	683b      	ldr	r3, [r7, #0]
 8000f3a:	68db      	ldr	r3, [r3, #12]
 8000f3c:	623b      	str	r3, [r7, #32]
 8000f3e:	e028      	b.n	8000f92 <HAL_GPIO_Init+0xe2>
 8000f40:	683b      	ldr	r3, [r7, #0]
 8000f42:	68db      	ldr	r3, [r3, #12]
 8000f44:	3304      	adds	r3, #4
 8000f46:	623b      	str	r3, [r7, #32]
 8000f48:	e023      	b.n	8000f92 <HAL_GPIO_Init+0xe2>
 8000f4a:	683b      	ldr	r3, [r7, #0]
 8000f4c:	68db      	ldr	r3, [r3, #12]
 8000f4e:	3308      	adds	r3, #8
 8000f50:	623b      	str	r3, [r7, #32]
 8000f52:	e01e      	b.n	8000f92 <HAL_GPIO_Init+0xe2>
 8000f54:	683b      	ldr	r3, [r7, #0]
 8000f56:	68db      	ldr	r3, [r3, #12]
 8000f58:	330c      	adds	r3, #12
 8000f5a:	623b      	str	r3, [r7, #32]
 8000f5c:	e019      	b.n	8000f92 <HAL_GPIO_Init+0xe2>
 8000f5e:	683b      	ldr	r3, [r7, #0]
 8000f60:	689b      	ldr	r3, [r3, #8]
 8000f62:	2b00      	cmp	r3, #0
 8000f64:	d102      	bne.n	8000f6c <HAL_GPIO_Init+0xbc>
 8000f66:	2304      	movs	r3, #4
 8000f68:	623b      	str	r3, [r7, #32]
 8000f6a:	e012      	b.n	8000f92 <HAL_GPIO_Init+0xe2>
 8000f6c:	683b      	ldr	r3, [r7, #0]
 8000f6e:	689b      	ldr	r3, [r3, #8]
 8000f70:	2b01      	cmp	r3, #1
 8000f72:	d105      	bne.n	8000f80 <HAL_GPIO_Init+0xd0>
 8000f74:	2308      	movs	r3, #8
 8000f76:	623b      	str	r3, [r7, #32]
 8000f78:	687b      	ldr	r3, [r7, #4]
 8000f7a:	69fa      	ldr	r2, [r7, #28]
 8000f7c:	611a      	str	r2, [r3, #16]
 8000f7e:	e008      	b.n	8000f92 <HAL_GPIO_Init+0xe2>
 8000f80:	2308      	movs	r3, #8
 8000f82:	623b      	str	r3, [r7, #32]
 8000f84:	687b      	ldr	r3, [r7, #4]
 8000f86:	69fa      	ldr	r2, [r7, #28]
 8000f88:	615a      	str	r2, [r3, #20]
 8000f8a:	e002      	b.n	8000f92 <HAL_GPIO_Init+0xe2>
 8000f8c:	2300      	movs	r3, #0
 8000f8e:	623b      	str	r3, [r7, #32]
 8000f90:	bf00      	nop
 8000f92:	69bb      	ldr	r3, [r7, #24]
 8000f94:	2bff      	cmp	r3, #255	; 0xff
 8000f96:	d801      	bhi.n	8000f9c <HAL_GPIO_Init+0xec>
 8000f98:	687b      	ldr	r3, [r7, #4]
 8000f9a:	e001      	b.n	8000fa0 <HAL_GPIO_Init+0xf0>
 8000f9c:	687b      	ldr	r3, [r7, #4]
 8000f9e:	3304      	adds	r3, #4
 8000fa0:	617b      	str	r3, [r7, #20]
 8000fa2:	69bb      	ldr	r3, [r7, #24]
 8000fa4:	2bff      	cmp	r3, #255	; 0xff
 8000fa6:	d802      	bhi.n	8000fae <HAL_GPIO_Init+0xfe>
 8000fa8:	6a7b      	ldr	r3, [r7, #36]	; 0x24
 8000faa:	009b      	lsls	r3, r3, #2
 8000fac:	e002      	b.n	8000fb4 <HAL_GPIO_Init+0x104>
 8000fae:	6a7b      	ldr	r3, [r7, #36]	; 0x24
 8000fb0:	3b08      	subs	r3, #8
 8000fb2:	009b      	lsls	r3, r3, #2
 8000fb4:	613b      	str	r3, [r7, #16]
 8000fb6:	697b      	ldr	r3, [r7, #20]
 8000fb8:	681a      	ldr	r2, [r3, #0]
 8000fba:	210f      	movs	r1, #15
 8000fbc:	693b      	ldr	r3, [r7, #16]
 8000fbe:	fa01 f303 	lsl.w	r3, r1, r3
 8000fc2:	43db      	mvns	r3, r3
 8000fc4:	401a      	ands	r2, r3
 8000fc6:	6a39      	ldr	r1, [r7, #32]
 8000fc8:	693b      	ldr	r3, [r7, #16]
 8000fca:	fa01 f303 	lsl.w	r3, r1, r3
 8000fce:	431a      	orrs	r2, r3
 8000fd0:	697b      	ldr	r3, [r7, #20]
 8000fd2:	601a      	str	r2, [r3, #0]
 8000fd4:	683b      	ldr	r3, [r7, #0]
 8000fd6:	685b      	ldr	r3, [r3, #4]
 8000fd8:	f003 5380 	and.w	r3, r3, #268435456	; 0x10000000
 8000fdc:	2b00      	cmp	r3, #0
 8000fde:	f000 8096 	beq.w	800110e <HAL_GPIO_Init+0x25e>
 8000fe2:	4b59      	ldr	r3, [pc, #356]	; (8001148 <HAL_GPIO_Init+0x298>)
 8000fe4:	699b      	ldr	r3, [r3, #24]
 8000fe6:	4a58      	ldr	r2, [pc, #352]	; (8001148 <HAL_GPIO_Init+0x298>)
 8000fe8:	f043 0301 	orr.w	r3, r3, #1
 8000fec:	6193      	str	r3, [r2, #24]
 8000fee:	4b56      	ldr	r3, [pc, #344]	; (8001148 <HAL_GPIO_Init+0x298>)
 8000ff0:	699b      	ldr	r3, [r3, #24]
 8000ff2:	f003 0301 	and.w	r3, r3, #1
 8000ff6:	60bb      	str	r3, [r7, #8]
 8000ff8:	68bb      	ldr	r3, [r7, #8]
 8000ffa:	4a54      	ldr	r2, [pc, #336]	; (800114c <HAL_GPIO_Init+0x29c>)
 8000ffc:	6a7b      	ldr	r3, [r7, #36]	; 0x24
 8000ffe:	089b      	lsrs	r3, r3, #2
 8001000:	3302      	adds	r3, #2
 8001002:	f852 3023 	ldr.w	r3, [r2, r3, lsl #2]
 8001006:	60fb      	str	r3, [r7, #12]
 8001008:	6a7b      	ldr	r3, [r7, #36]	; 0x24
 800100a:	f003 0303 	and.w	r3, r3, #3
 800100e:	009b      	lsls	r3, r3, #2
 8001010:	220f      	movs	r2, #15
 8001012:	fa02 f303 	lsl.w	r3, r2, r3
 8001016:	43db      	mvns	r3, r3
 8001018:	68fa      	ldr	r2, [r7, #12]
 800101a:	4013      	ands	r3, r2
 800101c:	60fb      	str	r3, [r7, #12]
 800101e:	687b      	ldr	r3, [r7, #4]
 8001020:	4a4b      	ldr	r2, [pc, #300]	; (8001150 <HAL_GPIO_Init+0x2a0>)
 8001022:	4293      	cmp	r3, r2
 8001024:	d013      	beq.n	800104e <HAL_GPIO_Init+0x19e>
 8001026:	687b      	ldr	r3, [r7, #4]
 8001028:	4a4a      	ldr	r2, [pc, #296]	; (8001154 <HAL_GPIO_Init+0x2a4>)
 800102a:	4293      	cmp	r3, r2
 800102c:	d00d      	beq.n	800104a <HAL_GPIO_Init+0x19a>
 800102e:	687b      	ldr	r3, [r7, #4]
 8001030:	4a49      	ldr	r2, [pc, #292]	; (8001158 <HAL_GPIO_Init+0x2a8>)
 8001032:	4293      	cmp	r3, r2
 8001034:	d007      	beq.n	8001046 <HAL_GPIO_Init+0x196>
 8001036:	687b      	ldr	r3, [r7, #4]
 8001038:	4a48      	ldr	r2, [pc, #288]	; (800115c <HAL_GPIO_Init+0x2ac>)
 800103a:	4293      	cmp	r3, r2
 800103c:	d101      	bne.n	8001042 <HAL_GPIO_Init+0x192>
 800103e:	2303      	movs	r3, #3
 8001040:	e006      	b.n	8001050 <HAL_GPIO_Init+0x1a0>
 8001042:	2304      	movs	r3, #4
 8001044:	e004      	b.n	8001050 <HAL_GPIO_Init+0x1a0>
 8001046:	2302      	movs	r3, #2
 8001048:	e002      	b.n	8001050 <HAL_GPIO_Init+0x1a0>
 800104a:	2301      	movs	r3, #1
 800104c:	e000      	b.n	8001050 <HAL_GPIO_Init+0x1a0>
 800104e:	2300      	movs	r3, #0
 8001050:	6a7a      	ldr	r2, [r7, #36]	; 0x24
 8001052:	f002 0203 	and.w	r2, r2, #3
 8001056:	0092      	lsls	r2, r2, #2
 8001058:	4093      	lsls	r3, r2
 800105a:	68fa      	ldr	r2, [r7, #12]
 800105c:	4313      	orrs	r3, r2
 800105e:	60fb      	str	r3, [r7, #12]
 8001060:	493a      	ldr	r1, [pc, #232]	; (800114c <HAL_GPIO_Init+0x29c>)
 8001062:	6a7b      	ldr	r3, [r7, #36]	; 0x24
 8001064:	089b      	lsrs	r3, r3, #2
 8001066:	3302      	adds	r3, #2
 8001068:	68fa      	ldr	r2, [r7, #12]
 800106a:	f841 2023 	str.w	r2, [r1, r3, lsl #2]
 800106e:	683b      	ldr	r3, [r7, #0]
 8001070:	685b      	ldr	r3, [r3, #4]
 8001072:	f403 3380 	and.w	r3, r3, #65536	; 0x10000
 8001076:	2b00      	cmp	r3, #0
 8001078:	d006      	beq.n	8001088 <HAL_GPIO_Init+0x1d8>
 800107a:	4b39      	ldr	r3, [pc, #228]	; (8001160 <HAL_GPIO_Init+0x2b0>)
 800107c:	681a      	ldr	r2, [r3, #0]
 800107e:	4938      	ldr	r1, [pc, #224]	; (8001160 <HAL_GPIO_Init+0x2b0>)
 8001080:	69bb      	ldr	r3, [r7, #24]
 8001082:	4313      	orrs	r3, r2
 8001084:	600b      	str	r3, [r1, #0]
 8001086:	e006      	b.n	8001096 <HAL_GPIO_Init+0x1e6>
 8001088:	4b35      	ldr	r3, [pc, #212]	; (8001160 <HAL_GPIO_Init+0x2b0>)
 800108a:	681a      	ldr	r2, [r3, #0]
 800108c:	69bb      	ldr	r3, [r7, #24]
 800108e:	43db      	mvns	r3, r3
 8001090:	4933      	ldr	r1, [pc, #204]	; (8001160 <HAL_GPIO_Init+0x2b0>)
 8001092:	4013      	ands	r3, r2
 8001094:	600b      	str	r3, [r1, #0]
 8001096:	683b      	ldr	r3, [r7, #0]
 8001098:	685b      	ldr	r3, [r3, #4]
 800109a:	f403 3300 	and.w	r3, r3, #131072	; 0x20000
 800109e:	2b00      	cmp	r3, #0
 80010a0:	d006      	beq.n	80010b0 <HAL_GPIO_Init+0x200>
 80010a2:	4b2f      	ldr	r3, [pc, #188]	; (8001160 <HAL_GPIO_Init+0x2b0>)
 80010a4:	685a      	ldr	r2, [r3, #4]
 80010a6:	492e      	ldr	r1, [pc, #184]	; (8001160 <HAL_GPIO_Init+0x2b0>)
 80010a8:	69bb      	ldr	r3, [r7, #24]
 80010aa:	4313      	orrs	r3, r2
 80010ac:	604b      	str	r3, [r1, #4]
 80010ae:	e006      	b.n	80010be <HAL_GPIO_Init+0x20e>
 80010b0:	4b2b      	ldr	r3, [pc, #172]	; (8001160 <HAL_GPIO_Init+0x2b0>)
 80010b2:	685a      	ldr	r2, [r3, #4]
 80010b4:	69bb      	ldr	r3, [r7, #24]
 80010b6:	43db      	mvns	r3, r3
 80010b8:	4929      	ldr	r1, [pc, #164]	; (8001160 <HAL_GPIO_Init+0x2b0>)
 80010ba:	4013      	ands	r3, r2
 80010bc:	604b      	str	r3, [r1, #4]
 80010be:	683b      	ldr	r3, [r7, #0]
 80010c0:	685b      	ldr	r3, [r3, #4]
 80010c2:	f403 1380 	and.w	r3, r3, #1048576	; 0x100000
 80010c6:	2b00      	cmp	r3, #0
 80010c8:	d006      	beq.n	80010d8 <HAL_GPIO_Init+0x228>
 80010ca:	4b25      	ldr	r3, [pc, #148]	; (8001160 <HAL_GPIO_Init+0x2b0>)
 80010cc:	689a      	ldr	r2, [r3, #8]
 80010ce:	4924      	ldr	r1, [pc, #144]	; (8001160 <HAL_GPIO_Init+0x2b0>)
 80010d0:	69bb      	ldr	r3, [r7, #24]
 80010d2:	4313      	orrs	r3, r2
 80010d4:	608b      	str	r3, [r1, #8]
 80010d6:	e006      	b.n	80010e6 <HAL_GPIO_Init+0x236>
 80010d8:	4b21      	ldr	r3, [pc, #132]	; (8001160 <HAL_GPIO_Init+0x2b0>)
 80010da:	689a      	ldr	r2, [r3, #8]
 80010dc:	69bb      	ldr	r3, [r7, #24]
 80010de:	43db      	mvns	r3, r3
 80010e0:	491f      	ldr	r1, [pc, #124]	; (8001160 <HAL_GPIO_Init+0x2b0>)
 80010e2:	4013      	ands	r3, r2
 80010e4:	608b      	str	r3, [r1, #8]
 80010e6:	683b      	ldr	r3, [r7, #0]
 80010e8:	685b      	ldr	r3, [r3, #4]
 80010ea:	f403 1300 	and.w	r3, r3, #2097152	; 0x200000
 80010ee:	2b00      	cmp	r3, #0
 80010f0:	d006      	beq.n	8001100 <HAL_GPIO_Init+0x250>
 80010f2:	4b1b      	ldr	r3, [pc, #108]	; (8001160 <HAL_GPIO_Init+0x2b0>)
 80010f4:	68da      	ldr	r2, [r3, #12]
 80010f6:	491a      	ldr	r1, [pc, #104]	; (8001160 <HAL_GPIO_Init+0x2b0>)
 80010f8:	69bb      	ldr	r3, [r7, #24]
 80010fa:	4313      	orrs	r3, r2
 80010fc:	60cb      	str	r3, [r1, #12]
 80010fe:	e006      	b.n	800110e <HAL_GPIO_Init+0x25e>
 8001100:	4b17      	ldr	r3, [pc, #92]	; (8001160 <HAL_GPIO_Init+0x2b0>)
 8001102:	68da      	ldr	r2, [r3, #12]
 8001104:	69bb      	ldr	r3, [r7, #24]
 8001106:	43db      	mvns	r3, r3
 8001108:	4915      	ldr	r1, [pc, #84]	; (8001160 <HAL_GPIO_Init+0x2b0>)
 800110a:	4013      	ands	r3, r2
 800110c:	60cb      	str	r3, [r1, #12]
 800110e:	6a7b      	ldr	r3, [r7, #36]	; 0x24
 8001110:	3301      	adds	r3, #1
 8001112:	627b      	str	r3, [r7, #36]	; 0x24
 8001114:	683b      	ldr	r3, [r7, #0]
 8001116:	681a      	ldr	r2, [r3, #0]
 8001118:	6a7b      	ldr	r3, [r7, #36]	; 0x24
 800111a:	fa22 f303 	lsr.w	r3, r2, r3
 800111e:	2b00      	cmp	r3, #0
 8001120:	f47f aed0 	bne.w	8000ec4 <HAL_GPIO_Init+0x14>
 8001124:	bf00      	nop
 8001126:	372c      	adds	r7, #44	; 0x2c
 8001128:	46bd      	mov	sp, r7
 800112a:	bc80      	pop	{r7}
 800112c:	4770      	bx	lr
 800112e:	bf00      	nop
 8001130:	10210000 	.word	0x10210000
 8001134:	10110000 	.word	0x10110000
 8001138:	10120000 	.word	0x10120000
 800113c:	10310000 	.word	0x10310000
 8001140:	10320000 	.word	0x10320000
 8001144:	10220000 	.word	0x10220000
 8001148:	40021000 	.word	0x40021000
 800114c:	40010000 	.word	0x40010000
 8001150:	40010800 	.word	0x40010800
 8001154:	40010c00 	.word	0x40010c00
 8001158:	40011000 	.word	0x40011000
 800115c:	40011400 	.word	0x40011400
 8001160:	40010400 	.word	0x40010400

08001164 <HAL_GPIO_WritePin>:
 8001164:	b480      	push	{r7}
 8001166:	b083      	sub	sp, #12
 8001168:	af00      	add	r7, sp, #0
 800116a:	6078      	str	r0, [r7, #4]
 800116c:	460b      	mov	r3, r1
 800116e:	807b      	strh	r3, [r7, #2]
 8001170:	4613      	mov	r3, r2
 8001172:	707b      	strb	r3, [r7, #1]
 8001174:	787b      	ldrb	r3, [r7, #1]
 8001176:	2b00      	cmp	r3, #0
 8001178:	d003      	beq.n	8001182 <HAL_GPIO_WritePin+0x1e>
 800117a:	887a      	ldrh	r2, [r7, #2]
 800117c:	687b      	ldr	r3, [r7, #4]
 800117e:	611a      	str	r2, [r3, #16]
 8001180:	e003      	b.n	800118a <HAL_GPIO_WritePin+0x26>
 8001182:	887b      	ldrh	r3, [r7, #2]
 8001184:	041a      	lsls	r2, r3, #16
 8001186:	687b      	ldr	r3, [r7, #4]
 8001188:	611a      	str	r2, [r3, #16]
 800118a:	bf00      	nop
 800118c:	370c      	adds	r7, #12
 800118e:	46bd      	mov	sp, r7
 8001190:	bc80      	pop	{r7}
 8001192:	4770      	bx	lr

08001194 <HAL_GPIO_TogglePin>:
 8001194:	b480      	push	{r7}
 8001196:	b083      	sub	sp, #12
 8001198:	af00      	add	r7, sp, #0
 800119a:	6078      	str	r0, [r7, #4]
 800119c:	460b      	mov	r3, r1
 800119e:	807b      	strh	r3, [r7, #2]
 80011a0:	687b      	ldr	r3, [r7, #4]
 80011a2:	68da      	ldr	r2, [r3, #12]
 80011a4:	887b      	ldrh	r3, [r7, #2]
 80011a6:	4013      	ands	r3, r2
 80011a8:	2b00      	cmp	r3, #0
 80011aa:	d003      	beq.n	80011b4 <HAL_GPIO_TogglePin+0x20>
 80011ac:	887a      	ldrh	r2, [r7, #2]
 80011ae:	687b      	ldr	r3, [r7, #4]
 80011b0:	615a      	str	r2, [r3, #20]
 80011b2:	e002      	b.n	80011ba <HAL_GPIO_TogglePin+0x26>
 80011b4:	887a      	ldrh	r2, [r7, #2]
 80011b6:	687b      	ldr	r3, [r7, #4]
 80011b8:	611a      	str	r2, [r3, #16]
 80011ba:	bf00      	nop
 80011bc:	370c      	adds	r7, #12
 80011be:	46bd      	mov	sp, r7
 80011c0:	bc80      	pop	{r7}
 80011c2:	4770      	bx	lr

080011c4 <HAL_RCC_OscConfig>:
 80011c4:	b580      	push	{r7, lr}
 80011c6:	b086      	sub	sp, #24
 80011c8:	af00      	add	r7, sp, #0
 80011ca:	6078      	str	r0, [r7, #4]
 80011cc:	687b      	ldr	r3, [r7, #4]
 80011ce:	2b00      	cmp	r3, #0
 80011d0:	d101      	bne.n	80011d6 <HAL_RCC_OscConfig+0x12>
 80011d2:	2301      	movs	r3, #1
 80011d4:	e26c      	b.n	80016b0 <HAL_RCC_OscConfig+0x4ec>
 80011d6:	687b      	ldr	r3, [r7, #4]
 80011d8:	681b      	ldr	r3, [r3, #0]
 80011da:	f003 0301 	and.w	r3, r3, #1
 80011de:	2b00      	cmp	r3, #0
 80011e0:	f000 8087 	beq.w	80012f2 <HAL_RCC_OscConfig+0x12e>
 80011e4:	4b92      	ldr	r3, [pc, #584]	; (8001430 <HAL_RCC_OscConfig+0x26c>)
 80011e6:	685b      	ldr	r3, [r3, #4]
 80011e8:	f003 030c 	and.w	r3, r3, #12
 80011ec:	2b04      	cmp	r3, #4
 80011ee:	d00c      	beq.n	800120a <HAL_RCC_OscConfig+0x46>
 80011f0:	4b8f      	ldr	r3, [pc, #572]	; (8001430 <HAL_RCC_OscConfig+0x26c>)
 80011f2:	685b      	ldr	r3, [r3, #4]
 80011f4:	f003 030c 	and.w	r3, r3, #12
 80011f8:	2b08      	cmp	r3, #8
 80011fa:	d112      	bne.n	8001222 <HAL_RCC_OscConfig+0x5e>
 80011fc:	4b8c      	ldr	r3, [pc, #560]	; (8001430 <HAL_RCC_OscConfig+0x26c>)
 80011fe:	685b      	ldr	r3, [r3, #4]
 8001200:	f403 3380 	and.w	r3, r3, #65536	; 0x10000
 8001204:	f5b3 3f80 	cmp.w	r3, #65536	; 0x10000
 8001208:	d10b      	bne.n	8001222 <HAL_RCC_OscConfig+0x5e>
 800120a:	4b89      	ldr	r3, [pc, #548]	; (8001430 <HAL_RCC_OscConfig+0x26c>)
 800120c:	681b      	ldr	r3, [r3, #0]
 800120e:	f403 3300 	and.w	r3, r3, #131072	; 0x20000
 8001212:	2b00      	cmp	r3, #0
 8001214:	d06c      	beq.n	80012f0 <HAL_RCC_OscConfig+0x12c>
 8001216:	687b      	ldr	r3, [r7, #4]
 8001218:	685b      	ldr	r3, [r3, #4]
 800121a:	2b00      	cmp	r3, #0
 800121c:	d168      	bne.n	80012f0 <HAL_RCC_OscConfig+0x12c>
 800121e:	2301      	movs	r3, #1
 8001220:	e246      	b.n	80016b0 <HAL_RCC_OscConfig+0x4ec>
 8001222:	687b      	ldr	r3, [r7, #4]
 8001224:	685b      	ldr	r3, [r3, #4]
 8001226:	f5b3 3f80 	cmp.w	r3, #65536	; 0x10000
 800122a:	d106      	bne.n	800123a <HAL_RCC_OscConfig+0x76>
 800122c:	4b80      	ldr	r3, [pc, #512]	; (8001430 <HAL_RCC_OscConfig+0x26c>)
 800122e:	681b      	ldr	r3, [r3, #0]
 8001230:	4a7f      	ldr	r2, [pc, #508]	; (8001430 <HAL_RCC_OscConfig+0x26c>)
 8001232:	f443 3380 	orr.w	r3, r3, #65536	; 0x10000
 8001236:	6013      	str	r3, [r2, #0]
 8001238:	e02e      	b.n	8001298 <HAL_RCC_OscConfig+0xd4>
 800123a:	687b      	ldr	r3, [r7, #4]
 800123c:	685b      	ldr	r3, [r3, #4]
 800123e:	2b00      	cmp	r3, #0
 8001240:	d10c      	bne.n	800125c <HAL_RCC_OscConfig+0x98>
 8001242:	4b7b      	ldr	r3, [pc, #492]	; (8001430 <HAL_RCC_OscConfig+0x26c>)
 8001244:	681b      	ldr	r3, [r3, #0]
 8001246:	4a7a      	ldr	r2, [pc, #488]	; (8001430 <HAL_RCC_OscConfig+0x26c>)
 8001248:	f423 3380 	bic.w	r3, r3, #65536	; 0x10000
 800124c:	6013      	str	r3, [r2, #0]
 800124e:	4b78      	ldr	r3, [pc, #480]	; (8001430 <HAL_RCC_OscConfig+0x26c>)
 8001250:	681b      	ldr	r3, [r3, #0]
 8001252:	4a77      	ldr	r2, [pc, #476]	; (8001430 <HAL_RCC_OscConfig+0x26c>)
 8001254:	f423 2380 	bic.w	r3, r3, #262144	; 0x40000
 8001258:	6013      	str	r3, [r2, #0]
 800125a:	e01d      	b.n	8001298 <HAL_RCC_OscConfig+0xd4>
 800125c:	687b      	ldr	r3, [r7, #4]
 800125e:	685b      	ldr	r3, [r3, #4]
 8001260:	f5b3 2fa0 	cmp.w	r3, #327680	; 0x50000
 8001264:	d10c      	bne.n	8001280 <HAL_RCC_OscConfig+0xbc>
 8001266:	4b72      	ldr	r3, [pc, #456]	; (8001430 <HAL_RCC_OscConfig+0x26c>)
 8001268:	681b      	ldr	r3, [r3, #0]
 800126a:	4a71      	ldr	r2, [pc, #452]	; (8001430 <HAL_RCC_OscConfig+0x26c>)
 800126c:	f443 2380 	orr.w	r3, r3, #262144	; 0x40000
 8001270:	6013      	str	r3, [r2, #0]
 8001272:	4b6f      	ldr	r3, [pc, #444]	; (8001430 <HAL_RCC_OscConfig+0x26c>)
 8001274:	681b      	ldr	r3, [r3, #0]
 8001276:	4a6e      	ldr	r2, [pc, #440]	; (8001430 <HAL_RCC_OscConfig+0x26c>)
 8001278:	f443 3380 	orr.w	r3, r3, #65536	; 0x10000
 800127c:	6013      	str	r3, [r2, #0]
 800127e:	e00b      	b.n	8001298 <HAL_RCC_OscConfig+0xd4>
 8001280:	4b6b      	ldr	r3, [pc, #428]	; (8001430 <HAL_RCC_OscConfig+0x26c>)
 8001282:	681b      	ldr	r3, [r3, #0]
 8001284:	4a6a      	ldr	r2, [pc, #424]	; (8001430 <HAL_RCC_OscConfig+0x26c>)
 8001286:	f423 3380 	bic.w	r3, r3, #65536	; 0x10000
 800128a:	6013      	str	r3, [r2, #0]
 800128c:	4b68      	ldr	r3, [pc, #416]	; (8001430 <HAL_RCC_OscConfig+0x26c>)
 800128e:	681b      	ldr	r3, [r3, #0]
 8001290:	4a67      	ldr	r2, [pc, #412]	; (8001430 <HAL_RCC_OscConfig+0x26c>)
 8001292:	f423 2380 	bic.w	r3, r3, #262144	; 0x40000
 8001296:	6013      	str	r3, [r2, #0]
 8001298:	687b      	ldr	r3, [r7, #4]
 800129a:	685b      	ldr	r3, [r3, #4]
 800129c:	2b00      	cmp	r3, #0
 800129e:	d013      	beq.n	80012c8 <HAL_RCC_OscConfig+0x104>
 80012a0:	f7ff fd18 	bl	8000cd4 <HAL_GetTick>
 80012a4:	6138      	str	r0, [r7, #16]
 80012a6:	e008      	b.n	80012ba <HAL_RCC_OscConfig+0xf6>
 80012a8:	f7ff fd14 	bl	8000cd4 <HAL_GetTick>
 80012ac:	4602      	mov	r2, r0
 80012ae:	693b      	ldr	r3, [r7, #16]
 80012b0:	1ad3      	subs	r3, r2, r3
 80012b2:	2b64      	cmp	r3, #100	; 0x64
 80012b4:	d901      	bls.n	80012ba <HAL_RCC_OscConfig+0xf6>
 80012b6:	2303      	movs	r3, #3
 80012b8:	e1fa      	b.n	80016b0 <HAL_RCC_OscConfig+0x4ec>
 80012ba:	4b5d      	ldr	r3, [pc, #372]	; (8001430 <HAL_RCC_OscConfig+0x26c>)
 80012bc:	681b      	ldr	r3, [r3, #0]
 80012be:	f403 3300 	and.w	r3, r3, #131072	; 0x20000
 80012c2:	2b00      	cmp	r3, #0
 80012c4:	d0f0      	beq.n	80012a8 <HAL_RCC_OscConfig+0xe4>
 80012c6:	e014      	b.n	80012f2 <HAL_RCC_OscConfig+0x12e>
 80012c8:	f7ff fd04 	bl	8000cd4 <HAL_GetTick>
 80012cc:	6138      	str	r0, [r7, #16]
 80012ce:	e008      	b.n	80012e2 <HAL_RCC_OscConfig+0x11e>
 80012d0:	f7ff fd00 	bl	8000cd4 <HAL_GetTick>
 80012d4:	4602      	mov	r2, r0
 80012d6:	693b      	ldr	r3, [r7, #16]
 80012d8:	1ad3      	subs	r3, r2, r3
 80012da:	2b64      	cmp	r3, #100	; 0x64
 80012dc:	d901      	bls.n	80012e2 <HAL_RCC_OscConfig+0x11e>
 80012de:	2303      	movs	r3, #3
 80012e0:	e1e6      	b.n	80016b0 <HAL_RCC_OscConfig+0x4ec>
 80012e2:	4b53      	ldr	r3, [pc, #332]	; (8001430 <HAL_RCC_OscConfig+0x26c>)
 80012e4:	681b      	ldr	r3, [r3, #0]
 80012e6:	f403 3300 	and.w	r3, r3, #131072	; 0x20000
 80012ea:	2b00      	cmp	r3, #0
 80012ec:	d1f0      	bne.n	80012d0 <HAL_RCC_OscConfig+0x10c>
 80012ee:	e000      	b.n	80012f2 <HAL_RCC_OscConfig+0x12e>
 80012f0:	bf00      	nop
 80012f2:	687b      	ldr	r3, [r7, #4]
 80012f4:	681b      	ldr	r3, [r3, #0]
 80012f6:	f003 0302 	and.w	r3, r3, #2
 80012fa:	2b00      	cmp	r3, #0
 80012fc:	d063      	beq.n	80013c6 <HAL_RCC_OscConfig+0x202>
 80012fe:	4b4c      	ldr	r3, [pc, #304]	; (8001430 <HAL_RCC_OscConfig+0x26c>)
 8001300:	685b      	ldr	r3, [r3, #4]
 8001302:	f003 030c 	and.w	r3, r3, #12
 8001306:	2b00      	cmp	r3, #0
 8001308:	d00b      	beq.n	8001322 <HAL_RCC_OscConfig+0x15e>
 800130a:	4b49      	ldr	r3, [pc, #292]	; (8001430 <HAL_RCC_OscConfig+0x26c>)
 800130c:	685b      	ldr	r3, [r3, #4]
 800130e:	f003 030c 	and.w	r3, r3, #12
 8001312:	2b08      	cmp	r3, #8
 8001314:	d11c      	bne.n	8001350 <HAL_RCC_OscConfig+0x18c>
 8001316:	4b46      	ldr	r3, [pc, #280]	; (8001430 <HAL_RCC_OscConfig+0x26c>)
 8001318:	685b      	ldr	r3, [r3, #4]
 800131a:	f403 3380 	and.w	r3, r3, #65536	; 0x10000
 800131e:	2b00      	cmp	r3, #0
 8001320:	d116      	bne.n	8001350 <HAL_RCC_OscConfig+0x18c>
 8001322:	4b43      	ldr	r3, [pc, #268]	; (8001430 <HAL_RCC_OscConfig+0x26c>)
 8001324:	681b      	ldr	r3, [r3, #0]
 8001326:	f003 0302 	and.w	r3, r3, #2
 800132a:	2b00      	cmp	r3, #0
 800132c:	d005      	beq.n	800133a <HAL_RCC_OscConfig+0x176>
 800132e:	687b      	ldr	r3, [r7, #4]
 8001330:	691b      	ldr	r3, [r3, #16]
 8001332:	2b01      	cmp	r3, #1
 8001334:	d001      	beq.n	800133a <HAL_RCC_OscConfig+0x176>
 8001336:	2301      	movs	r3, #1
 8001338:	e1ba      	b.n	80016b0 <HAL_RCC_OscConfig+0x4ec>
 800133a:	4b3d      	ldr	r3, [pc, #244]	; (8001430 <HAL_RCC_OscConfig+0x26c>)
 800133c:	681b      	ldr	r3, [r3, #0]
 800133e:	f023 02f8 	bic.w	r2, r3, #248	; 0xf8
 8001342:	687b      	ldr	r3, [r7, #4]
 8001344:	695b      	ldr	r3, [r3, #20]
 8001346:	00db      	lsls	r3, r3, #3
 8001348:	4939      	ldr	r1, [pc, #228]	; (8001430 <HAL_RCC_OscConfig+0x26c>)
 800134a:	4313      	orrs	r3, r2
 800134c:	600b      	str	r3, [r1, #0]
 800134e:	e03a      	b.n	80013c6 <HAL_RCC_OscConfig+0x202>
 8001350:	687b      	ldr	r3, [r7, #4]
 8001352:	691b      	ldr	r3, [r3, #16]
 8001354:	2b00      	cmp	r3, #0
 8001356:	d020      	beq.n	800139a <HAL_RCC_OscConfig+0x1d6>
 8001358:	4b36      	ldr	r3, [pc, #216]	; (8001434 <HAL_RCC_OscConfig+0x270>)
 800135a:	2201      	movs	r2, #1
 800135c:	601a      	str	r2, [r3, #0]
 800135e:	f7ff fcb9 	bl	8000cd4 <HAL_GetTick>
 8001362:	6138      	str	r0, [r7, #16]
 8001364:	e008      	b.n	8001378 <HAL_RCC_OscConfig+0x1b4>
 8001366:	f7ff fcb5 	bl	8000cd4 <HAL_GetTick>
 800136a:	4602      	mov	r2, r0
 800136c:	693b      	ldr	r3, [r7, #16]
 800136e:	1ad3      	subs	r3, r2, r3
 8001370:	2b02      	cmp	r3, #2
 8001372:	d901      	bls.n	8001378 <HAL_RCC_OscConfig+0x1b4>
 8001374:	2303      	movs	r3, #3
 8001376:	e19b      	b.n	80016b0 <HAL_RCC_OscConfig+0x4ec>
 8001378:	4b2d      	ldr	r3, [pc, #180]	; (8001430 <HAL_RCC_OscConfig+0x26c>)
 800137a:	681b      	ldr	r3, [r3, #0]
 800137c:	f003 0302 	and.w	r3, r3, #2
 8001380:	2b00      	cmp	r3, #0
 8001382:	d0f0      	beq.n	8001366 <HAL_RCC_OscConfig+0x1a2>
 8001384:	4b2a      	ldr	r3, [pc, #168]	; (8001430 <HAL_RCC_OscConfig+0x26c>)
 8001386:	681b      	ldr	r3, [r3, #0]
 8001388:	f023 02f8 	bic.w	r2, r3, #248	; 0xf8
 800138c:	687b      	ldr	r3, [r7, #4]
 800138e:	695b      	ldr	r3, [r3, #20]
 8001390:	00db      	lsls	r3, r3, #3
 8001392:	4927      	ldr	r1, [pc, #156]	; (8001430 <HAL_RCC_OscConfig+0x26c>)
 8001394:	4313      	orrs	r3, r2
 8001396:	600b      	str	r3, [r1, #0]
 8001398:	e015      	b.n	80013c6 <HAL_RCC_OscConfig+0x202>
 800139a:	4b26      	ldr	r3, [pc, #152]	; (8001434 <HAL_RCC_OscConfig+0x270>)
 800139c:	2200      	movs	r2, #0
 800139e:	601a      	str	r2, [r3, #0]
 80013a0:	f7ff fc98 	bl	8000cd4 <HAL_GetTick>
 80013a4:	6138      	str	r0, [r7, #16]
 80013a6:	e008      	b.n	80013ba <HAL_RCC_OscConfig+0x1f6>
 80013a8:	f7ff fc94 	bl	8000cd4 <HAL_GetTick>
 80013ac:	4602      	mov	r2, r0
 80013ae:	693b      	ldr	r3, [r7, #16]
 80013b0:	1ad3      	subs	r3, r2, r3
 80013b2:	2b02      	cmp	r3, #2
 80013b4:	d901      	bls.n	80013ba <HAL_RCC_OscConfig+0x1f6>
 80013b6:	2303      	movs	r3, #3
 80013b8:	e17a      	b.n	80016b0 <HAL_RCC_OscConfig+0x4ec>
 80013ba:	4b1d      	ldr	r3, [pc, #116]	; (8001430 <HAL_RCC_OscConfig+0x26c>)
 80013bc:	681b      	ldr	r3, [r3, #0]
 80013be:	f003 0302 	and.w	r3, r3, #2
 80013c2:	2b00      	cmp	r3, #0
 80013c4:	d1f0      	bne.n	80013a8 <HAL_RCC_OscConfig+0x1e4>
 80013c6:	687b      	ldr	r3, [r7, #4]
 80013c8:	681b      	ldr	r3, [r3, #0]
 80013ca:	f003 0308 	and.w	r3, r3, #8
 80013ce:	2b00      	cmp	r3, #0
 80013d0:	d03a      	beq.n	8001448 <HAL_RCC_OscConfig+0x284>
 80013d2:	687b      	ldr	r3, [r7, #4]
 80013d4:	699b      	ldr	r3, [r3, #24]
 80013d6:	2b00      	cmp	r3, #0
 80013d8:	d019      	beq.n	800140e <HAL_RCC_OscConfig+0x24a>
 80013da:	4b17      	ldr	r3, [pc, #92]	; (8001438 <HAL_RCC_OscConfig+0x274>)
 80013dc:	2201      	movs	r2, #1
 80013de:	601a      	str	r2, [r3, #0]
 80013e0:	f7ff fc78 	bl	8000cd4 <HAL_GetTick>
 80013e4:	6138      	str	r0, [r7, #16]
 80013e6:	e008      	b.n	80013fa <HAL_RCC_OscConfig+0x236>
 80013e8:	f7ff fc74 	bl	8000cd4 <HAL_GetTick>
 80013ec:	4602      	mov	r2, r0
 80013ee:	693b      	ldr	r3, [r7, #16]
 80013f0:	1ad3      	subs	r3, r2, r3
 80013f2:	2b02      	cmp	r3, #2
 80013f4:	d901      	bls.n	80013fa <HAL_RCC_OscConfig+0x236>
 80013f6:	2303      	movs	r3, #3
 80013f8:	e15a      	b.n	80016b0 <HAL_RCC_OscConfig+0x4ec>
 80013fa:	4b0d      	ldr	r3, [pc, #52]	; (8001430 <HAL_RCC_OscConfig+0x26c>)
 80013fc:	6a5b      	ldr	r3, [r3, #36]	; 0x24
 80013fe:	f003 0302 	and.w	r3, r3, #2
 8001402:	2b00      	cmp	r3, #0
 8001404:	d0f0      	beq.n	80013e8 <HAL_RCC_OscConfig+0x224>
 8001406:	2001      	movs	r0, #1
 8001408:	f000 fada 	bl	80019c0 <RCC_Delay>
 800140c:	e01c      	b.n	8001448 <HAL_RCC_OscConfig+0x284>
 800140e:	4b0a      	ldr	r3, [pc, #40]	; (8001438 <HAL_RCC_OscConfig+0x274>)
 8001410:	2200      	movs	r2, #0
 8001412:	601a      	str	r2, [r3, #0]
 8001414:	f7ff fc5e 	bl	8000cd4 <HAL_GetTick>
 8001418:	6138      	str	r0, [r7, #16]
 800141a:	e00f      	b.n	800143c <HAL_RCC_OscConfig+0x278>
 800141c:	f7ff fc5a 	bl	8000cd4 <HAL_GetTick>
 8001420:	4602      	mov	r2, r0
 8001422:	693b      	ldr	r3, [r7, #16]
 8001424:	1ad3      	subs	r3, r2, r3
 8001426:	2b02      	cmp	r3, #2
 8001428:	d908      	bls.n	800143c <HAL_RCC_OscConfig+0x278>
 800142a:	2303      	movs	r3, #3
 800142c:	e140      	b.n	80016b0 <HAL_RCC_OscConfig+0x4ec>
 800142e:	bf00      	nop
 8001430:	40021000 	.word	0x40021000
 8001434:	42420000 	.word	0x42420000
 8001438:	42420480 	.word	0x42420480
 800143c:	4b9e      	ldr	r3, [pc, #632]	; (80016b8 <HAL_RCC_OscConfig+0x4f4>)
 800143e:	6a5b      	ldr	r3, [r3, #36]	; 0x24
 8001440:	f003 0302 	and.w	r3, r3, #2
 8001444:	2b00      	cmp	r3, #0
 8001446:	d1e9      	bne.n	800141c <HAL_RCC_OscConfig+0x258>
 8001448:	687b      	ldr	r3, [r7, #4]
 800144a:	681b      	ldr	r3, [r3, #0]
 800144c:	f003 0304 	and.w	r3, r3, #4
 8001450:	2b00      	cmp	r3, #0
 8001452:	f000 80a6 	beq.w	80015a2 <HAL_RCC_OscConfig+0x3de>
 8001456:	2300      	movs	r3, #0
 8001458:	75fb      	strb	r3, [r7, #23]
 800145a:	4b97      	ldr	r3, [pc, #604]	; (80016b8 <HAL_RCC_OscConfig+0x4f4>)
 800145c:	69db      	ldr	r3, [r3, #28]
 800145e:	f003 5380 	and.w	r3, r3, #268435456	; 0x10000000
 8001462:	2b00      	cmp	r3, #0
 8001464:	d10d      	bne.n	8001482 <HAL_RCC_OscConfig+0x2be>
 8001466:	4b94      	ldr	r3, [pc, #592]	; (80016b8 <HAL_RCC_OscConfig+0x4f4>)
 8001468:	69db      	ldr	r3, [r3, #28]
 800146a:	4a93      	ldr	r2, [pc, #588]	; (80016b8 <HAL_RCC_OscConfig+0x4f4>)
 800146c:	f043 5380 	orr.w	r3, r3, #268435456	; 0x10000000
 8001470:	61d3      	str	r3, [r2, #28]
 8001472:	4b91      	ldr	r3, [pc, #580]	; (80016b8 <HAL_RCC_OscConfig+0x4f4>)
 8001474:	69db      	ldr	r3, [r3, #28]
 8001476:	f003 5380 	and.w	r3, r3, #268435456	; 0x10000000
 800147a:	60bb      	str	r3, [r7, #8]
 800147c:	68bb      	ldr	r3, [r7, #8]
 800147e:	2301      	movs	r3, #1
 8001480:	75fb      	strb	r3, [r7, #23]
 8001482:	4b8e      	ldr	r3, [pc, #568]	; (80016bc <HAL_RCC_OscConfig+0x4f8>)
 8001484:	681b      	ldr	r3, [r3, #0]
 8001486:	f403 7380 	and.w	r3, r3, #256	; 0x100
 800148a:	2b00      	cmp	r3, #0
 800148c:	d118      	bne.n	80014c0 <HAL_RCC_OscConfig+0x2fc>
 800148e:	4b8b      	ldr	r3, [pc, #556]	; (80016bc <HAL_RCC_OscConfig+0x4f8>)
 8001490:	681b      	ldr	r3, [r3, #0]
 8001492:	4a8a      	ldr	r2, [pc, #552]	; (80016bc <HAL_RCC_OscConfig+0x4f8>)
 8001494:	f443 7380 	orr.w	r3, r3, #256	; 0x100
 8001498:	6013      	str	r3, [r2, #0]
 800149a:	f7ff fc1b 	bl	8000cd4 <HAL_GetTick>
 800149e:	6138      	str	r0, [r7, #16]
 80014a0:	e008      	b.n	80014b4 <HAL_RCC_OscConfig+0x2f0>
 80014a2:	f7ff fc17 	bl	8000cd4 <HAL_GetTick>
 80014a6:	4602      	mov	r2, r0
 80014a8:	693b      	ldr	r3, [r7, #16]
 80014aa:	1ad3      	subs	r3, r2, r3
 80014ac:	2b64      	cmp	r3, #100	; 0x64
 80014ae:	d901      	bls.n	80014b4 <HAL_RCC_OscConfig+0x2f0>
 80014b0:	2303      	movs	r3, #3
 80014b2:	e0fd      	b.n	80016b0 <HAL_RCC_OscConfig+0x4ec>
 80014b4:	4b81      	ldr	r3, [pc, #516]	; (80016bc <HAL_RCC_OscConfig+0x4f8>)
 80014b6:	681b      	ldr	r3, [r3, #0]
 80014b8:	f403 7380 	and.w	r3, r3, #256	; 0x100
 80014bc:	2b00      	cmp	r3, #0
 80014be:	d0f0      	beq.n	80014a2 <HAL_RCC_OscConfig+0x2de>
 80014c0:	687b      	ldr	r3, [r7, #4]
 80014c2:	68db      	ldr	r3, [r3, #12]
 80014c4:	2b01      	cmp	r3, #1
 80014c6:	d106      	bne.n	80014d6 <HAL_RCC_OscConfig+0x312>
 80014c8:	4b7b      	ldr	r3, [pc, #492]	; (80016b8 <HAL_RCC_OscConfig+0x4f4>)
 80014ca:	6a1b      	ldr	r3, [r3, #32]
 80014cc:	4a7a      	ldr	r2, [pc, #488]	; (80016b8 <HAL_RCC_OscConfig+0x4f4>)
 80014ce:	f043 0301 	orr.w	r3, r3, #1
 80014d2:	6213      	str	r3, [r2, #32]
 80014d4:	e02d      	b.n	8001532 <HAL_RCC_OscConfig+0x36e>
 80014d6:	687b      	ldr	r3, [r7, #4]
 80014d8:	68db      	ldr	r3, [r3, #12]
 80014da:	2b00      	cmp	r3, #0
 80014dc:	d10c      	bne.n	80014f8 <HAL_RCC_OscConfig+0x334>
 80014de:	4b76      	ldr	r3, [pc, #472]	; (80016b8 <HAL_RCC_OscConfig+0x4f4>)
 80014e0:	6a1b      	ldr	r3, [r3, #32]
 80014e2:	4a75      	ldr	r2, [pc, #468]	; (80016b8 <HAL_RCC_OscConfig+0x4f4>)
 80014e4:	f023 0301 	bic.w	r3, r3, #1
 80014e8:	6213      	str	r3, [r2, #32]
 80014ea:	4b73      	ldr	r3, [pc, #460]	; (80016b8 <HAL_RCC_OscConfig+0x4f4>)
 80014ec:	6a1b      	ldr	r3, [r3, #32]
 80014ee:	4a72      	ldr	r2, [pc, #456]	; (80016b8 <HAL_RCC_OscConfig+0x4f4>)
 80014f0:	f023 0304 	bic.w	r3, r3, #4
 80014f4:	6213      	str	r3, [r2, #32]
 80014f6:	e01c      	b.n	8001532 <HAL_RCC_OscConfig+0x36e>
 80014f8:	687b      	ldr	r3, [r7, #4]
 80014fa:	68db      	ldr	r3, [r3, #12]
 80014fc:	2b05      	cmp	r3, #5
 80014fe:	d10c      	bne.n	800151a <HAL_RCC_OscConfig+0x356>
 8001500:	4b6d      	ldr	r3, [pc, #436]	; (80016b8 <HAL_RCC_OscConfig+0x4f4>)
 8001502:	6a1b      	ldr	r3, [r3, #32]
 8001504:	4a6c      	ldr	r2, [pc, #432]	; (80016b8 <HAL_RCC_OscConfig+0x4f4>)
 8001506:	f043 0304 	orr.w	r3, r3, #4
 800150a:	6213      	str	r3, [r2, #32]
 800150c:	4b6a      	ldr	r3, [pc, #424]	; (80016b8 <HAL_RCC_OscConfig+0x4f4>)
 800150e:	6a1b      	ldr	r3, [r3, #32]
 8001510:	4a69      	ldr	r2, [pc, #420]	; (80016b8 <HAL_RCC_OscConfig+0x4f4>)
 8001512:	f043 0301 	orr.w	r3, r3, #1
 8001516:	6213      	str	r3, [r2, #32]
 8001518:	e00b      	b.n	8001532 <HAL_RCC_OscConfig+0x36e>
 800151a:	4b67      	ldr	r3, [pc, #412]	; (80016b8 <HAL_RCC_OscConfig+0x4f4>)
 800151c:	6a1b      	ldr	r3, [r3, #32]
 800151e:	4a66      	ldr	r2, [pc, #408]	; (80016b8 <HAL_RCC_OscConfig+0x4f4>)
 8001520:	f023 0301 	bic.w	r3, r3, #1
 8001524:	6213      	str	r3, [r2, #32]
 8001526:	4b64      	ldr	r3, [pc, #400]	; (80016b8 <HAL_RCC_OscConfig+0x4f4>)
 8001528:	6a1b      	ldr	r3, [r3, #32]
 800152a:	4a63      	ldr	r2, [pc, #396]	; (80016b8 <HAL_RCC_OscConfig+0x4f4>)
 800152c:	f023 0304 	bic.w	r3, r3, #4
 8001530:	6213      	str	r3, [r2, #32]
 8001532:	687b      	ldr	r3, [r7, #4]
 8001534:	68db      	ldr	r3, [r3, #12]
 8001536:	2b00      	cmp	r3, #0
 8001538:	d015      	beq.n	8001566 <HAL_RCC_OscConfig+0x3a2>
 800153a:	f7ff fbcb 	bl	8000cd4 <HAL_GetTick>
 800153e:	6138      	str	r0, [r7, #16]
 8001540:	e00a      	b.n	8001558 <HAL_RCC_OscConfig+0x394>
 8001542:	f7ff fbc7 	bl	8000cd4 <HAL_GetTick>
 8001546:	4602      	mov	r2, r0
 8001548:	693b      	ldr	r3, [r7, #16]
 800154a:	1ad3      	subs	r3, r2, r3
 800154c:	f241 3288 	movw	r2, #5000	; 0x1388
 8001550:	4293      	cmp	r3, r2
 8001552:	d901      	bls.n	8001558 <HAL_RCC_OscConfig+0x394>
 8001554:	2303      	movs	r3, #3
 8001556:	e0ab      	b.n	80016b0 <HAL_RCC_OscConfig+0x4ec>
 8001558:	4b57      	ldr	r3, [pc, #348]	; (80016b8 <HAL_RCC_OscConfig+0x4f4>)
 800155a:	6a1b      	ldr	r3, [r3, #32]
 800155c:	f003 0302 	and.w	r3, r3, #2
 8001560:	2b00      	cmp	r3, #0
 8001562:	d0ee      	beq.n	8001542 <HAL_RCC_OscConfig+0x37e>
 8001564:	e014      	b.n	8001590 <HAL_RCC_OscConfig+0x3cc>
 8001566:	f7ff fbb5 	bl	8000cd4 <HAL_GetTick>
 800156a:	6138      	str	r0, [r7, #16]
 800156c:	e00a      	b.n	8001584 <HAL_RCC_OscConfig+0x3c0>
 800156e:	f7ff fbb1 	bl	8000cd4 <HAL_GetTick>
 8001572:	4602      	mov	r2, r0
 8001574:	693b      	ldr	r3, [r7, #16]
 8001576:	1ad3      	subs	r3, r2, r3
 8001578:	f241 3288 	movw	r2, #5000	; 0x1388
 800157c:	4293      	cmp	r3, r2
 800157e:	d901      	bls.n	8001584 <HAL_RCC_OscConfig+0x3c0>
 8001580:	2303      	movs	r3, #3
 8001582:	e095      	b.n	80016b0 <HAL_RCC_OscConfig+0x4ec>
 8001584:	4b4c      	ldr	r3, [pc, #304]	; (80016b8 <HAL_RCC_OscConfig+0x4f4>)
 8001586:	6a1b      	ldr	r3, [r3, #32]
 8001588:	f003 0302 	and.w	r3, r3, #2
 800158c:	2b00      	cmp	r3, #0
 800158e:	d1ee      	bne.n	800156e <HAL_RCC_OscConfig+0x3aa>
 8001590:	7dfb      	ldrb	r3, [r7, #23]
 8001592:	2b01      	cmp	r3, #1
 8001594:	d105      	bne.n	80015a2 <HAL_RCC_OscConfig+0x3de>
 8001596:	4b48      	ldr	r3, [pc, #288]	; (80016b8 <HAL_RCC_OscConfig+0x4f4>)
 8001598:	69db      	ldr	r3, [r3, #28]
 800159a:	4a47      	ldr	r2, [pc, #284]	; (80016b8 <HAL_RCC_OscConfig+0x4f4>)
 800159c:	f023 5380 	bic.w	r3, r3, #268435456	; 0x10000000
 80015a0:	61d3      	str	r3, [r2, #28]
 80015a2:	687b      	ldr	r3, [r7, #4]
 80015a4:	69db      	ldr	r3, [r3, #28]
 80015a6:	2b00      	cmp	r3, #0
 80015a8:	f000 8081 	beq.w	80016ae <HAL_RCC_OscConfig+0x4ea>
 80015ac:	4b42      	ldr	r3, [pc, #264]	; (80016b8 <HAL_RCC_OscConfig+0x4f4>)
 80015ae:	685b      	ldr	r3, [r3, #4]
 80015b0:	f003 030c 	and.w	r3, r3, #12
 80015b4:	2b08      	cmp	r3, #8
 80015b6:	d061      	beq.n	800167c <HAL_RCC_OscConfig+0x4b8>
 80015b8:	687b      	ldr	r3, [r7, #4]
 80015ba:	69db      	ldr	r3, [r3, #28]
 80015bc:	2b02      	cmp	r3, #2
 80015be:	d146      	bne.n	800164e <HAL_RCC_OscConfig+0x48a>
 80015c0:	4b3f      	ldr	r3, [pc, #252]	; (80016c0 <HAL_RCC_OscConfig+0x4fc>)
 80015c2:	2200      	movs	r2, #0
 80015c4:	601a      	str	r2, [r3, #0]
 80015c6:	f7ff fb85 	bl	8000cd4 <HAL_GetTick>
 80015ca:	6138      	str	r0, [r7, #16]
 80015cc:	e008      	b.n	80015e0 <HAL_RCC_OscConfig+0x41c>
 80015ce:	f7ff fb81 	bl	8000cd4 <HAL_GetTick>
 80015d2:	4602      	mov	r2, r0
 80015d4:	693b      	ldr	r3, [r7, #16]
 80015d6:	1ad3      	subs	r3, r2, r3
 80015d8:	2b02      	cmp	r3, #2
 80015da:	d901      	bls.n	80015e0 <HAL_RCC_OscConfig+0x41c>
 80015dc:	2303      	movs	r3, #3
 80015de:	e067      	b.n	80016b0 <HAL_RCC_OscConfig+0x4ec>
 80015e0:	4b35      	ldr	r3, [pc, #212]	; (80016b8 <HAL_RCC_OscConfig+0x4f4>)
 80015e2:	681b      	ldr	r3, [r3, #0]
 80015e4:	f003 7300 	and.w	r3, r3, #33554432	; 0x2000000
 80015e8:	2b00      	cmp	r3, #0
 80015ea:	d1f0      	bne.n	80015ce <HAL_RCC_OscConfig+0x40a>
 80015ec:	687b      	ldr	r3, [r7, #4]
 80015ee:	6a1b      	ldr	r3, [r3, #32]
 80015f0:	f5b3 3f80 	cmp.w	r3, #65536	; 0x10000
 80015f4:	d108      	bne.n	8001608 <HAL_RCC_OscConfig+0x444>
 80015f6:	4b30      	ldr	r3, [pc, #192]	; (80016b8 <HAL_RCC_OscConfig+0x4f4>)
 80015f8:	685b      	ldr	r3, [r3, #4]
 80015fa:	f423 3200 	bic.w	r2, r3, #131072	; 0x20000
 80015fe:	687b      	ldr	r3, [r7, #4]
 8001600:	689b      	ldr	r3, [r3, #8]
 8001602:	492d      	ldr	r1, [pc, #180]	; (80016b8 <HAL_RCC_OscConfig+0x4f4>)
 8001604:	4313      	orrs	r3, r2
 8001606:	604b      	str	r3, [r1, #4]
 8001608:	4b2b      	ldr	r3, [pc, #172]	; (80016b8 <HAL_RCC_OscConfig+0x4f4>)
 800160a:	685b      	ldr	r3, [r3, #4]
 800160c:	f423 1274 	bic.w	r2, r3, #3997696	; 0x3d0000
 8001610:	687b      	ldr	r3, [r7, #4]
 8001612:	6a19      	ldr	r1, [r3, #32]
 8001614:	687b      	ldr	r3, [r7, #4]
 8001616:	6a5b      	ldr	r3, [r3, #36]	; 0x24
 8001618:	430b      	orrs	r3, r1
 800161a:	4927      	ldr	r1, [pc, #156]	; (80016b8 <HAL_RCC_OscConfig+0x4f4>)
 800161c:	4313      	orrs	r3, r2
 800161e:	604b      	str	r3, [r1, #4]
 8001620:	4b27      	ldr	r3, [pc, #156]	; (80016c0 <HAL_RCC_OscConfig+0x4fc>)
 8001622:	2201      	movs	r2, #1
 8001624:	601a      	str	r2, [r3, #0]
 8001626:	f7ff fb55 	bl	8000cd4 <HAL_GetTick>
 800162a:	6138      	str	r0, [r7, #16]
 800162c:	e008      	b.n	8001640 <HAL_RCC_OscConfig+0x47c>
 800162e:	f7ff fb51 	bl	8000cd4 <HAL_GetTick>
 8001632:	4602      	mov	r2, r0
 8001634:	693b      	ldr	r3, [r7, #16]
 8001636:	1ad3      	subs	r3, r2, r3
 8001638:	2b02      	cmp	r3, #2
 800163a:	d901      	bls.n	8001640 <HAL_RCC_OscConfig+0x47c>
 800163c:	2303      	movs	r3, #3
 800163e:	e037      	b.n	80016b0 <HAL_RCC_OscConfig+0x4ec>
 8001640:	4b1d      	ldr	r3, [pc, #116]	; (80016b8 <HAL_RCC_OscConfig+0x4f4>)
 8001642:	681b      	ldr	r3, [r3, #0]
 8001644:	f003 7300 	and.w	r3, r3, #33554432	; 0x2000000
 8001648:	2b00      	cmp	r3, #0
 800164a:	d0f0      	beq.n	800162e <HAL_RCC_OscConfig+0x46a>
 800164c:	e02f      	b.n	80016ae <HAL_RCC_OscConfig+0x4ea>
 800164e:	4b1c      	ldr	r3, [pc, #112]	; (80016c0 <HAL_RCC_OscConfig+0x4fc>)
 8001650:	2200      	movs	r2, #0
 8001652:	601a      	str	r2, [r3, #0]
 8001654:	f7ff fb3e 	bl	8000cd4 <HAL_GetTick>
 8001658:	6138      	str	r0, [r7, #16]
 800165a:	e008      	b.n	800166e <HAL_RCC_OscConfig+0x4aa>
 800165c:	f7ff fb3a 	bl	8000cd4 <HAL_GetTick>
 8001660:	4602      	mov	r2, r0
 8001662:	693b      	ldr	r3, [r7, #16]
 8001664:	1ad3      	subs	r3, r2, r3
 8001666:	2b02      	cmp	r3, #2
 8001668:	d901      	bls.n	800166e <HAL_RCC_OscConfig+0x4aa>
 800166a:	2303      	movs	r3, #3
 800166c:	e020      	b.n	80016b0 <HAL_RCC_OscConfig+0x4ec>
 800166e:	4b12      	ldr	r3, [pc, #72]	; (80016b8 <HAL_RCC_OscConfig+0x4f4>)
 8001670:	681b      	ldr	r3, [r3, #0]
 8001672:	f003 7300 	and.w	r3, r3, #33554432	; 0x2000000
 8001676:	2b00      	cmp	r3, #0
 8001678:	d1f0      	bne.n	800165c <HAL_RCC_OscConfig+0x498>
 800167a:	e018      	b.n	80016ae <HAL_RCC_OscConfig+0x4ea>
 800167c:	687b      	ldr	r3, [r7, #4]
 800167e:	69db      	ldr	r3, [r3, #28]
 8001680:	2b01      	cmp	r3, #1
 8001682:	d101      	bne.n	8001688 <HAL_RCC_OscConfig+0x4c4>
 8001684:	2301      	movs	r3, #1
 8001686:	e013      	b.n	80016b0 <HAL_RCC_OscConfig+0x4ec>
 8001688:	4b0b      	ldr	r3, [pc, #44]	; (80016b8 <HAL_RCC_OscConfig+0x4f4>)
 800168a:	685b      	ldr	r3, [r3, #4]
 800168c:	60fb      	str	r3, [r7, #12]
 800168e:	68fb      	ldr	r3, [r7, #12]
 8001690:	f403 3280 	and.w	r2, r3, #65536	; 0x10000
 8001694:	687b      	ldr	r3, [r7, #4]
 8001696:	6a1b      	ldr	r3, [r3, #32]
 8001698:	429a      	cmp	r2, r3
 800169a:	d106      	bne.n	80016aa <HAL_RCC_OscConfig+0x4e6>
 800169c:	68fb      	ldr	r3, [r7, #12]
 800169e:	f403 1270 	and.w	r2, r3, #3932160	; 0x3c0000
 80016a2:	687b      	ldr	r3, [r7, #4]
 80016a4:	6a5b      	ldr	r3, [r3, #36]	; 0x24
 80016a6:	429a      	cmp	r2, r3
 80016a8:	d001      	beq.n	80016ae <HAL_RCC_OscConfig+0x4ea>
 80016aa:	2301      	movs	r3, #1
 80016ac:	e000      	b.n	80016b0 <HAL_RCC_OscConfig+0x4ec>
 80016ae:	2300      	movs	r3, #0
 80016b0:	4618      	mov	r0, r3
 80016b2:	3718      	adds	r7, #24
 80016b4:	46bd      	mov	sp, r7
 80016b6:	bd80      	pop	{r7, pc}
 80016b8:	40021000 	.word	0x40021000
 80016bc:	40007000 	.word	0x40007000
 80016c0:	42420060 	.word	0x42420060

080016c4 <HAL_RCC_ClockConfig>:
 80016c4:	b580      	push	{r7, lr}
 80016c6:	b084      	sub	sp, #16
 80016c8:	af00      	add	r7, sp, #0
 80016ca:	6078      	str	r0, [r7, #4]
 80016cc:	6039      	str	r1, [r7, #0]
 80016ce:	687b      	ldr	r3, [r7, #4]
 80016d0:	2b00      	cmp	r3, #0
 80016d2:	d101      	bne.n	80016d8 <HAL_RCC_ClockConfig+0x14>
 80016d4:	2301      	movs	r3, #1
 80016d6:	e0d0      	b.n	800187a <HAL_RCC_ClockConfig+0x1b6>
 80016d8:	4b6a      	ldr	r3, [pc, #424]	; (8001884 <HAL_RCC_ClockConfig+0x1c0>)
 80016da:	681b      	ldr	r3, [r3, #0]
 80016dc:	f003 0307 	and.w	r3, r3, #7
 80016e0:	683a      	ldr	r2, [r7, #0]
 80016e2:	429a      	cmp	r2, r3
 80016e4:	d910      	bls.n	8001708 <HAL_RCC_ClockConfig+0x44>
 80016e6:	4b67      	ldr	r3, [pc, #412]	; (8001884 <HAL_RCC_ClockConfig+0x1c0>)
 80016e8:	681b      	ldr	r3, [r3, #0]
 80016ea:	f023 0207 	bic.w	r2, r3, #7
 80016ee:	4965      	ldr	r1, [pc, #404]	; (8001884 <HAL_RCC_ClockConfig+0x1c0>)
 80016f0:	683b      	ldr	r3, [r7, #0]
 80016f2:	4313      	orrs	r3, r2
 80016f4:	600b      	str	r3, [r1, #0]
 80016f6:	4b63      	ldr	r3, [pc, #396]	; (8001884 <HAL_RCC_ClockConfig+0x1c0>)
 80016f8:	681b      	ldr	r3, [r3, #0]
 80016fa:	f003 0307 	and.w	r3, r3, #7
 80016fe:	683a      	ldr	r2, [r7, #0]
 8001700:	429a      	cmp	r2, r3
 8001702:	d001      	beq.n	8001708 <HAL_RCC_ClockConfig+0x44>
 8001704:	2301      	movs	r3, #1
 8001706:	e0b8      	b.n	800187a <HAL_RCC_ClockConfig+0x1b6>
 8001708:	687b      	ldr	r3, [r7, #4]
 800170a:	681b      	ldr	r3, [r3, #0]
 800170c:	f003 0302 	and.w	r3, r3, #2
 8001710:	2b00      	cmp	r3, #0
 8001712:	d020      	beq.n	8001756 <HAL_RCC_ClockConfig+0x92>
 8001714:	687b      	ldr	r3, [r7, #4]
 8001716:	681b      	ldr	r3, [r3, #0]
 8001718:	f003 0304 	and.w	r3, r3, #4
 800171c:	2b00      	cmp	r3, #0
 800171e:	d005      	beq.n	800172c <HAL_RCC_ClockConfig+0x68>
 8001720:	4b59      	ldr	r3, [pc, #356]	; (8001888 <HAL_RCC_ClockConfig+0x1c4>)
 8001722:	685b      	ldr	r3, [r3, #4]
 8001724:	4a58      	ldr	r2, [pc, #352]	; (8001888 <HAL_RCC_ClockConfig+0x1c4>)
 8001726:	f443 63e0 	orr.w	r3, r3, #1792	; 0x700
 800172a:	6053      	str	r3, [r2, #4]
 800172c:	687b      	ldr	r3, [r7, #4]
 800172e:	681b      	ldr	r3, [r3, #0]
 8001730:	f003 0308 	and.w	r3, r3, #8
 8001734:	2b00      	cmp	r3, #0
 8001736:	d005      	beq.n	8001744 <HAL_RCC_ClockConfig+0x80>
 8001738:	4b53      	ldr	r3, [pc, #332]	; (8001888 <HAL_RCC_ClockConfig+0x1c4>)
 800173a:	685b      	ldr	r3, [r3, #4]
 800173c:	4a52      	ldr	r2, [pc, #328]	; (8001888 <HAL_RCC_ClockConfig+0x1c4>)
 800173e:	f443 5360 	orr.w	r3, r3, #14336	; 0x3800
 8001742:	6053      	str	r3, [r2, #4]
 8001744:	4b50      	ldr	r3, [pc, #320]	; (8001888 <HAL_RCC_ClockConfig+0x1c4>)
 8001746:	685b      	ldr	r3, [r3, #4]
 8001748:	f023 02f0 	bic.w	r2, r3, #240	; 0xf0
 800174c:	687b      	ldr	r3, [r7, #4]
 800174e:	689b      	ldr	r3, [r3, #8]
 8001750:	494d      	ldr	r1, [pc, #308]	; (8001888 <HAL_RCC_ClockConfig+0x1c4>)
 8001752:	4313      	orrs	r3, r2
 8001754:	604b      	str	r3, [r1, #4]
 8001756:	687b      	ldr	r3, [r7, #4]
 8001758:	681b      	ldr	r3, [r3, #0]
 800175a:	f003 0301 	and.w	r3, r3, #1
 800175e:	2b00      	cmp	r3, #0
 8001760:	d040      	beq.n	80017e4 <HAL_RCC_ClockConfig+0x120>
 8001762:	687b      	ldr	r3, [r7, #4]
 8001764:	685b      	ldr	r3, [r3, #4]
 8001766:	2b01      	cmp	r3, #1
 8001768:	d107      	bne.n	800177a <HAL_RCC_ClockConfig+0xb6>
 800176a:	4b47      	ldr	r3, [pc, #284]	; (8001888 <HAL_RCC_ClockConfig+0x1c4>)
 800176c:	681b      	ldr	r3, [r3, #0]
 800176e:	f403 3300 	and.w	r3, r3, #131072	; 0x20000
 8001772:	2b00      	cmp	r3, #0
 8001774:	d115      	bne.n	80017a2 <HAL_RCC_ClockConfig+0xde>
 8001776:	2301      	movs	r3, #1
 8001778:	e07f      	b.n	800187a <HAL_RCC_ClockConfig+0x1b6>
 800177a:	687b      	ldr	r3, [r7, #4]
 800177c:	685b      	ldr	r3, [r3, #4]
 800177e:	2b02      	cmp	r3, #2
 8001780:	d107      	bne.n	8001792 <HAL_RCC_ClockConfig+0xce>
 8001782:	4b41      	ldr	r3, [pc, #260]	; (8001888 <HAL_RCC_ClockConfig+0x1c4>)
 8001784:	681b      	ldr	r3, [r3, #0]
 8001786:	f003 7300 	and.w	r3, r3, #33554432	; 0x2000000
 800178a:	2b00      	cmp	r3, #0
 800178c:	d109      	bne.n	80017a2 <HAL_RCC_ClockConfig+0xde>
 800178e:	2301      	movs	r3, #1
 8001790:	e073      	b.n	800187a <HAL_RCC_ClockConfig+0x1b6>
 8001792:	4b3d      	ldr	r3, [pc, #244]	; (8001888 <HAL_RCC_ClockConfig+0x1c4>)
 8001794:	681b      	ldr	r3, [r3, #0]
 8001796:	f003 0302 	and.w	r3, r3, #2
 800179a:	2b00      	cmp	r3, #0
 800179c:	d101      	bne.n	80017a2 <HAL_RCC_ClockConfig+0xde>
 800179e:	2301      	movs	r3, #1
 80017a0:	e06b      	b.n	800187a <HAL_RCC_ClockConfig+0x1b6>
 80017a2:	4b39      	ldr	r3, [pc, #228]	; (8001888 <HAL_RCC_ClockConfig+0x1c4>)
 80017a4:	685b      	ldr	r3, [r3, #4]
 80017a6:	f023 0203 	bic.w	r2, r3, #3
 80017aa:	687b      	ldr	r3, [r7, #4]
 80017ac:	685b      	ldr	r3, [r3, #4]
 80017ae:	4936      	ldr	r1, [pc, #216]	; (8001888 <HAL_RCC_ClockConfig+0x1c4>)
 80017b0:	4313      	orrs	r3, r2
 80017b2:	604b      	str	r3, [r1, #4]
 80017b4:	f7ff fa8e 	bl	8000cd4 <HAL_GetTick>
 80017b8:	60f8      	str	r0, [r7, #12]
 80017ba:	e00a      	b.n	80017d2 <HAL_RCC_ClockConfig+0x10e>
 80017bc:	f7ff fa8a 	bl	8000cd4 <HAL_GetTick>
 80017c0:	4602      	mov	r2, r0
 80017c2:	68fb      	ldr	r3, [r7, #12]
 80017c4:	1ad3      	subs	r3, r2, r3
 80017c6:	f241 3288 	movw	r2, #5000	; 0x1388
 80017ca:	4293      	cmp	r3, r2
 80017cc:	d901      	bls.n	80017d2 <HAL_RCC_ClockConfig+0x10e>
 80017ce:	2303      	movs	r3, #3
 80017d0:	e053      	b.n	800187a <HAL_RCC_ClockConfig+0x1b6>
 80017d2:	4b2d      	ldr	r3, [pc, #180]	; (8001888 <HAL_RCC_ClockConfig+0x1c4>)
 80017d4:	685b      	ldr	r3, [r3, #4]
 80017d6:	f003 020c 	and.w	r2, r3, #12
 80017da:	687b      	ldr	r3, [r7, #4]
 80017dc:	685b      	ldr	r3, [r3, #4]
 80017de:	009b      	lsls	r3, r3, #2
 80017e0:	429a      	cmp	r2, r3
 80017e2:	d1eb      	bne.n	80017bc <HAL_RCC_ClockConfig+0xf8>
 80017e4:	4b27      	ldr	r3, [pc, #156]	; (8001884 <HAL_RCC_ClockConfig+0x1c0>)
 80017e6:	681b      	ldr	r3, [r3, #0]
 80017e8:	f003 0307 	and.w	r3, r3, #7
 80017ec:	683a      	ldr	r2, [r7, #0]
 80017ee:	429a      	cmp	r2, r3
 80017f0:	d210      	bcs.n	8001814 <HAL_RCC_ClockConfig+0x150>
 80017f2:	4b24      	ldr	r3, [pc, #144]	; (8001884 <HAL_RCC_ClockConfig+0x1c0>)
 80017f4:	681b      	ldr	r3, [r3, #0]
 80017f6:	f023 0207 	bic.w	r2, r3, #7
 80017fa:	4922      	ldr	r1, [pc, #136]	; (8001884 <HAL_RCC_ClockConfig+0x1c0>)
 80017fc:	683b      	ldr	r3, [r7, #0]
 80017fe:	4313      	orrs	r3, r2
 8001800:	600b      	str	r3, [r1, #0]
 8001802:	4b20      	ldr	r3, [pc, #128]	; (8001884 <HAL_RCC_ClockConfig+0x1c0>)
 8001804:	681b      	ldr	r3, [r3, #0]
 8001806:	f003 0307 	and.w	r3, r3, #7
 800180a:	683a      	ldr	r2, [r7, #0]
 800180c:	429a      	cmp	r2, r3
 800180e:	d001      	beq.n	8001814 <HAL_RCC_ClockConfig+0x150>
 8001810:	2301      	movs	r3, #1
 8001812:	e032      	b.n	800187a <HAL_RCC_ClockConfig+0x1b6>
 8001814:	687b      	ldr	r3, [r7, #4]
 8001816:	681b      	ldr	r3, [r3, #0]
 8001818:	f003 0304 	and.w	r3, r3, #4
 800181c:	2b00      	cmp	r3, #0
 800181e:	d008      	beq.n	8001832 <HAL_RCC_ClockConfig+0x16e>
 8001820:	4b19      	ldr	r3, [pc, #100]	; (8001888 <HAL_RCC_ClockConfig+0x1c4>)
 8001822:	685b      	ldr	r3, [r3, #4]
 8001824:	f423 62e0 	bic.w	r2, r3, #1792	; 0x700
 8001828:	687b      	ldr	r3, [r7, #4]
 800182a:	68db      	ldr	r3, [r3, #12]
 800182c:	4916      	ldr	r1, [pc, #88]	; (8001888 <HAL_RCC_ClockConfig+0x1c4>)
 800182e:	4313      	orrs	r3, r2
 8001830:	604b      	str	r3, [r1, #4]
 8001832:	687b      	ldr	r3, [r7, #4]
 8001834:	681b      	ldr	r3, [r3, #0]
 8001836:	f003 0308 	and.w	r3, r3, #8
 800183a:	2b00      	cmp	r3, #0
 800183c:	d009      	beq.n	8001852 <HAL_RCC_ClockConfig+0x18e>
 800183e:	4b12      	ldr	r3, [pc, #72]	; (8001888 <HAL_RCC_ClockConfig+0x1c4>)
 8001840:	685b      	ldr	r3, [r3, #4]
 8001842:	f423 5260 	bic.w	r2, r3, #14336	; 0x3800
 8001846:	687b      	ldr	r3, [r7, #4]
 8001848:	691b      	ldr	r3, [r3, #16]
 800184a:	00db      	lsls	r3, r3, #3
 800184c:	490e      	ldr	r1, [pc, #56]	; (8001888 <HAL_RCC_ClockConfig+0x1c4>)
 800184e:	4313      	orrs	r3, r2
 8001850:	604b      	str	r3, [r1, #4]
 8001852:	f000 f821 	bl	8001898 <HAL_RCC_GetSysClockFreq>
 8001856:	4601      	mov	r1, r0
 8001858:	4b0b      	ldr	r3, [pc, #44]	; (8001888 <HAL_RCC_ClockConfig+0x1c4>)
 800185a:	685b      	ldr	r3, [r3, #4]
 800185c:	091b      	lsrs	r3, r3, #4
 800185e:	f003 030f 	and.w	r3, r3, #15
 8001862:	4a0a      	ldr	r2, [pc, #40]	; (800188c <HAL_RCC_ClockConfig+0x1c8>)
 8001864:	5cd3      	ldrb	r3, [r2, r3]
 8001866:	fa21 f303 	lsr.w	r3, r1, r3
 800186a:	4a09      	ldr	r2, [pc, #36]	; (8001890 <HAL_RCC_ClockConfig+0x1cc>)
 800186c:	6013      	str	r3, [r2, #0]
 800186e:	4b09      	ldr	r3, [pc, #36]	; (8001894 <HAL_RCC_ClockConfig+0x1d0>)
 8001870:	681b      	ldr	r3, [r3, #0]
 8001872:	4618      	mov	r0, r3
 8001874:	f7ff f9ec 	bl	8000c50 <HAL_InitTick>
 8001878:	2300      	movs	r3, #0
 800187a:	4618      	mov	r0, r3
 800187c:	3710      	adds	r7, #16
 800187e:	46bd      	mov	sp, r7
 8001880:	bd80      	pop	{r7, pc}
 8001882:	bf00      	nop
 8001884:	40022000 	.word	0x40022000
 8001888:	40021000 	.word	0x40021000
 800188c:	08005428 	.word	0x08005428
 8001890:	20000008 	.word	0x20000008
 8001894:	2000000c 	.word	0x2000000c

08001898 <HAL_RCC_GetSysClockFreq>:
 8001898:	b490      	push	{r4, r7}
 800189a:	b08a      	sub	sp, #40	; 0x28
 800189c:	af00      	add	r7, sp, #0
 800189e:	4b2a      	ldr	r3, [pc, #168]	; (8001948 <HAL_RCC_GetSysClockFreq+0xb0>)
 80018a0:	1d3c      	adds	r4, r7, #4
 80018a2:	cb0f      	ldmia	r3, {r0, r1, r2, r3}
 80018a4:	e884 000f 	stmia.w	r4, {r0, r1, r2, r3}
 80018a8:	4b28      	ldr	r3, [pc, #160]	; (800194c <HAL_RCC_GetSysClockFreq+0xb4>)
 80018aa:	881b      	ldrh	r3, [r3, #0]
 80018ac:	803b      	strh	r3, [r7, #0]
 80018ae:	2300      	movs	r3, #0
 80018b0:	61fb      	str	r3, [r7, #28]
 80018b2:	2300      	movs	r3, #0
 80018b4:	61bb      	str	r3, [r7, #24]
 80018b6:	2300      	movs	r3, #0
 80018b8:	627b      	str	r3, [r7, #36]	; 0x24
 80018ba:	2300      	movs	r3, #0
 80018bc:	617b      	str	r3, [r7, #20]
 80018be:	2300      	movs	r3, #0
 80018c0:	623b      	str	r3, [r7, #32]
 80018c2:	4b23      	ldr	r3, [pc, #140]	; (8001950 <HAL_RCC_GetSysClockFreq+0xb8>)
 80018c4:	685b      	ldr	r3, [r3, #4]
 80018c6:	61fb      	str	r3, [r7, #28]
 80018c8:	69fb      	ldr	r3, [r7, #28]
 80018ca:	f003 030c 	and.w	r3, r3, #12
 80018ce:	2b04      	cmp	r3, #4
 80018d0:	d002      	beq.n	80018d8 <HAL_RCC_GetSysClockFreq+0x40>
 80018d2:	2b08      	cmp	r3, #8
 80018d4:	d003      	beq.n	80018de <HAL_RCC_GetSysClockFreq+0x46>
 80018d6:	e02d      	b.n	8001934 <HAL_RCC_GetSysClockFreq+0x9c>
 80018d8:	4b1e      	ldr	r3, [pc, #120]	; (8001954 <HAL_RCC_GetSysClockFreq+0xbc>)
 80018da:	623b      	str	r3, [r7, #32]
 80018dc:	e02d      	b.n	800193a <HAL_RCC_GetSysClockFreq+0xa2>
 80018de:	69fb      	ldr	r3, [r7, #28]
 80018e0:	0c9b      	lsrs	r3, r3, #18
 80018e2:	f003 030f 	and.w	r3, r3, #15
 80018e6:	f107 0228 	add.w	r2, r7, #40	; 0x28
 80018ea:	4413      	add	r3, r2
 80018ec:	f813 3c24 	ldrb.w	r3, [r3, #-36]
 80018f0:	617b      	str	r3, [r7, #20]
 80018f2:	69fb      	ldr	r3, [r7, #28]
 80018f4:	f403 3380 	and.w	r3, r3, #65536	; 0x10000
 80018f8:	2b00      	cmp	r3, #0
 80018fa:	d013      	beq.n	8001924 <HAL_RCC_GetSysClockFreq+0x8c>
 80018fc:	4b14      	ldr	r3, [pc, #80]	; (8001950 <HAL_RCC_GetSysClockFreq+0xb8>)
 80018fe:	685b      	ldr	r3, [r3, #4]
 8001900:	0c5b      	lsrs	r3, r3, #17
 8001902:	f003 0301 	and.w	r3, r3, #1
 8001906:	f107 0228 	add.w	r2, r7, #40	; 0x28
 800190a:	4413      	add	r3, r2
 800190c:	f813 3c28 	ldrb.w	r3, [r3, #-40]
 8001910:	61bb      	str	r3, [r7, #24]
 8001912:	697b      	ldr	r3, [r7, #20]
 8001914:	4a0f      	ldr	r2, [pc, #60]	; (8001954 <HAL_RCC_GetSysClockFreq+0xbc>)
 8001916:	fb02 f203 	mul.w	r2, r2, r3
 800191a:	69bb      	ldr	r3, [r7, #24]
 800191c:	fbb2 f3f3 	udiv	r3, r2, r3
 8001920:	627b      	str	r3, [r7, #36]	; 0x24
 8001922:	e004      	b.n	800192e <HAL_RCC_GetSysClockFreq+0x96>
 8001924:	697b      	ldr	r3, [r7, #20]
 8001926:	4a0c      	ldr	r2, [pc, #48]	; (8001958 <HAL_RCC_GetSysClockFreq+0xc0>)
 8001928:	fb02 f303 	mul.w	r3, r2, r3
 800192c:	627b      	str	r3, [r7, #36]	; 0x24
 800192e:	6a7b      	ldr	r3, [r7, #36]	; 0x24
 8001930:	623b      	str	r3, [r7, #32]
 8001932:	e002      	b.n	800193a <HAL_RCC_GetSysClockFreq+0xa2>
 8001934:	4b07      	ldr	r3, [pc, #28]	; (8001954 <HAL_RCC_GetSysClockFreq+0xbc>)
 8001936:	623b      	str	r3, [r7, #32]
 8001938:	bf00      	nop
 800193a:	6a3b      	ldr	r3, [r7, #32]
 800193c:	4618      	mov	r0, r3
 800193e:	3728      	adds	r7, #40	; 0x28
 8001940:	46bd      	mov	sp, r7
 8001942:	bc90      	pop	{r4, r7}
 8001944:	4770      	bx	lr
 8001946:	bf00      	nop
 8001948:	08005390 	.word	0x08005390
 800194c:	080053a0 	.word	0x080053a0
 8001950:	40021000 	.word	0x40021000
 8001954:	007a1200 	.word	0x007a1200
 8001958:	003d0900 	.word	0x003d0900

0800195c <HAL_RCC_GetHCLKFreq>:
 800195c:	b480      	push	{r7}
 800195e:	af00      	add	r7, sp, #0
 8001960:	4b02      	ldr	r3, [pc, #8]	; (800196c <HAL_RCC_GetHCLKFreq+0x10>)
 8001962:	681b      	ldr	r3, [r3, #0]
 8001964:	4618      	mov	r0, r3
 8001966:	46bd      	mov	sp, r7
 8001968:	bc80      	pop	{r7}
 800196a:	4770      	bx	lr
 800196c:	20000008 	.word	0x20000008

08001970 <HAL_RCC_GetPCLK1Freq>:
 8001970:	b580      	push	{r7, lr}
 8001972:	af00      	add	r7, sp, #0
 8001974:	f7ff fff2 	bl	800195c <HAL_RCC_GetHCLKFreq>
 8001978:	4601      	mov	r1, r0
 800197a:	4b05      	ldr	r3, [pc, #20]	; (8001990 <HAL_RCC_GetPCLK1Freq+0x20>)
 800197c:	685b      	ldr	r3, [r3, #4]
 800197e:	0a1b      	lsrs	r3, r3, #8
 8001980:	f003 0307 	and.w	r3, r3, #7
 8001984:	4a03      	ldr	r2, [pc, #12]	; (8001994 <HAL_RCC_GetPCLK1Freq+0x24>)
 8001986:	5cd3      	ldrb	r3, [r2, r3]
 8001988:	fa21 f303 	lsr.w	r3, r1, r3
 800198c:	4618      	mov	r0, r3
 800198e:	bd80      	pop	{r7, pc}
 8001990:	40021000 	.word	0x40021000
 8001994:	08005438 	.word	0x08005438

08001998 <HAL_RCC_GetPCLK2Freq>:
 8001998:	b580      	push	{r7, lr}
 800199a:	af00      	add	r7, sp, #0
 800199c:	f7ff ffde 	bl	800195c <HAL_RCC_GetHCLKFreq>
 80019a0:	4601      	mov	r1, r0
 80019a2:	4b05      	ldr	r3, [pc, #20]	; (80019b8 <HAL_RCC_GetPCLK2Freq+0x20>)
 80019a4:	685b      	ldr	r3, [r3, #4]
 80019a6:	0adb      	lsrs	r3, r3, #11
 80019a8:	f003 0307 	and.w	r3, r3, #7
 80019ac:	4a03      	ldr	r2, [pc, #12]	; (80019bc <HAL_RCC_GetPCLK2Freq+0x24>)
 80019ae:	5cd3      	ldrb	r3, [r2, r3]
 80019b0:	fa21 f303 	lsr.w	r3, r1, r3
 80019b4:	4618      	mov	r0, r3
 80019b6:	bd80      	pop	{r7, pc}
 80019b8:	40021000 	.word	0x40021000
 80019bc:	08005438 	.word	0x08005438

080019c0 <RCC_Delay>:
 80019c0:	b480      	push	{r7}
 80019c2:	b085      	sub	sp, #20
 80019c4:	af00      	add	r7, sp, #0
 80019c6:	6078      	str	r0, [r7, #4]
 80019c8:	4b0a      	ldr	r3, [pc, #40]	; (80019f4 <RCC_Delay+0x34>)
 80019ca:	681b      	ldr	r3, [r3, #0]
 80019cc:	4a0a      	ldr	r2, [pc, #40]	; (80019f8 <RCC_Delay+0x38>)
 80019ce:	fba2 2303 	umull	r2, r3, r2, r3
 80019d2:	0a5b      	lsrs	r3, r3, #9
 80019d4:	687a      	ldr	r2, [r7, #4]
 80019d6:	fb02 f303 	mul.w	r3, r2, r3
 80019da:	60fb      	str	r3, [r7, #12]
 80019dc:	bf00      	nop
 80019de:	68fb      	ldr	r3, [r7, #12]
 80019e0:	1e5a      	subs	r2, r3, #1
 80019e2:	60fa      	str	r2, [r7, #12]
 80019e4:	2b00      	cmp	r3, #0
 80019e6:	d1f9      	bne.n	80019dc <RCC_Delay+0x1c>
 80019e8:	bf00      	nop
 80019ea:	3714      	adds	r7, #20
 80019ec:	46bd      	mov	sp, r7
 80019ee:	bc80      	pop	{r7}
 80019f0:	4770      	bx	lr
 80019f2:	bf00      	nop
 80019f4:	20000008 	.word	0x20000008
 80019f8:	10624dd3 	.word	0x10624dd3

080019fc <HAL_UART_Init>:
 80019fc:	b580      	push	{r7, lr}
 80019fe:	b082      	sub	sp, #8
 8001a00:	af00      	add	r7, sp, #0
 8001a02:	6078      	str	r0, [r7, #4]
 8001a04:	687b      	ldr	r3, [r7, #4]
 8001a06:	2b00      	cmp	r3, #0
 8001a08:	d101      	bne.n	8001a0e <HAL_UART_Init+0x12>
 8001a0a:	2301      	movs	r3, #1
 8001a0c:	e03f      	b.n	8001a8e <HAL_UART_Init+0x92>
 8001a0e:	687b      	ldr	r3, [r7, #4]
 8001a10:	f893 3039 	ldrb.w	r3, [r3, #57]	; 0x39
 8001a14:	b2db      	uxtb	r3, r3
 8001a16:	2b00      	cmp	r3, #0
 8001a18:	d106      	bne.n	8001a28 <HAL_UART_Init+0x2c>
 8001a1a:	687b      	ldr	r3, [r7, #4]
 8001a1c:	2200      	movs	r2, #0
 8001a1e:	f883 2038 	strb.w	r2, [r3, #56]	; 0x38
 8001a22:	6878      	ldr	r0, [r7, #4]
 8001a24:	f7fe fffe 	bl	8000a24 <HAL_UART_MspInit>
 8001a28:	687b      	ldr	r3, [r7, #4]
 8001a2a:	2224      	movs	r2, #36	; 0x24
 8001a2c:	f883 2039 	strb.w	r2, [r3, #57]	; 0x39
 8001a30:	687b      	ldr	r3, [r7, #4]
 8001a32:	681b      	ldr	r3, [r3, #0]
 8001a34:	68da      	ldr	r2, [r3, #12]
 8001a36:	687b      	ldr	r3, [r7, #4]
 8001a38:	681b      	ldr	r3, [r3, #0]
 8001a3a:	f422 5200 	bic.w	r2, r2, #8192	; 0x2000
 8001a3e:	60da      	str	r2, [r3, #12]
 8001a40:	6878      	ldr	r0, [r7, #4]
 8001a42:	f000 f90b 	bl	8001c5c <UART_SetConfig>
 8001a46:	687b      	ldr	r3, [r7, #4]
 8001a48:	681b      	ldr	r3, [r3, #0]
 8001a4a:	691a      	ldr	r2, [r3, #16]
 8001a4c:	687b      	ldr	r3, [r7, #4]
 8001a4e:	681b      	ldr	r3, [r3, #0]
 8001a50:	f422 4290 	bic.w	r2, r2, #18432	; 0x4800
 8001a54:	611a      	str	r2, [r3, #16]
 8001a56:	687b      	ldr	r3, [r7, #4]
 8001a58:	681b      	ldr	r3, [r3, #0]
 8001a5a:	695a      	ldr	r2, [r3, #20]
 8001a5c:	687b      	ldr	r3, [r7, #4]
 8001a5e:	681b      	ldr	r3, [r3, #0]
 8001a60:	f022 022a 	bic.w	r2, r2, #42	; 0x2a
 8001a64:	615a      	str	r2, [r3, #20]
 8001a66:	687b      	ldr	r3, [r7, #4]
 8001a68:	681b      	ldr	r3, [r3, #0]
 8001a6a:	68da      	ldr	r2, [r3, #12]
 8001a6c:	687b      	ldr	r3, [r7, #4]
 8001a6e:	681b      	ldr	r3, [r3, #0]
 8001a70:	f442 5200 	orr.w	r2, r2, #8192	; 0x2000
 8001a74:	60da      	str	r2, [r3, #12]
 8001a76:	687b      	ldr	r3, [r7, #4]
 8001a78:	2200      	movs	r2, #0
 8001a7a:	63da      	str	r2, [r3, #60]	; 0x3c
 8001a7c:	687b      	ldr	r3, [r7, #4]
 8001a7e:	2220      	movs	r2, #32
 8001a80:	f883 2039 	strb.w	r2, [r3, #57]	; 0x39
 8001a84:	687b      	ldr	r3, [r7, #4]
 8001a86:	2220      	movs	r2, #32
 8001a88:	f883 203a 	strb.w	r2, [r3, #58]	; 0x3a
 8001a8c:	2300      	movs	r3, #0
 8001a8e:	4618      	mov	r0, r3
 8001a90:	3708      	adds	r7, #8
 8001a92:	46bd      	mov	sp, r7
 8001a94:	bd80      	pop	{r7, pc}

08001a96 <HAL_UART_Transmit>:
 8001a96:	b580      	push	{r7, lr}
 8001a98:	b088      	sub	sp, #32
 8001a9a:	af02      	add	r7, sp, #8
 8001a9c:	60f8      	str	r0, [r7, #12]
 8001a9e:	60b9      	str	r1, [r7, #8]
 8001aa0:	603b      	str	r3, [r7, #0]
 8001aa2:	4613      	mov	r3, r2
 8001aa4:	80fb      	strh	r3, [r7, #6]
 8001aa6:	2300      	movs	r3, #0
 8001aa8:	617b      	str	r3, [r7, #20]
 8001aaa:	68fb      	ldr	r3, [r7, #12]
 8001aac:	f893 3039 	ldrb.w	r3, [r3, #57]	; 0x39
 8001ab0:	b2db      	uxtb	r3, r3
 8001ab2:	2b20      	cmp	r3, #32
 8001ab4:	f040 8083 	bne.w	8001bbe <HAL_UART_Transmit+0x128>
 8001ab8:	68bb      	ldr	r3, [r7, #8]
 8001aba:	2b00      	cmp	r3, #0
 8001abc:	d002      	beq.n	8001ac4 <HAL_UART_Transmit+0x2e>
 8001abe:	88fb      	ldrh	r3, [r7, #6]
 8001ac0:	2b00      	cmp	r3, #0
 8001ac2:	d101      	bne.n	8001ac8 <HAL_UART_Transmit+0x32>
 8001ac4:	2301      	movs	r3, #1
 8001ac6:	e07b      	b.n	8001bc0 <HAL_UART_Transmit+0x12a>
 8001ac8:	68fb      	ldr	r3, [r7, #12]
 8001aca:	f893 3038 	ldrb.w	r3, [r3, #56]	; 0x38
 8001ace:	2b01      	cmp	r3, #1
 8001ad0:	d101      	bne.n	8001ad6 <HAL_UART_Transmit+0x40>
 8001ad2:	2302      	movs	r3, #2
 8001ad4:	e074      	b.n	8001bc0 <HAL_UART_Transmit+0x12a>
 8001ad6:	68fb      	ldr	r3, [r7, #12]
 8001ad8:	2201      	movs	r2, #1
 8001ada:	f883 2038 	strb.w	r2, [r3, #56]	; 0x38
 8001ade:	68fb      	ldr	r3, [r7, #12]
 8001ae0:	2200      	movs	r2, #0
 8001ae2:	63da      	str	r2, [r3, #60]	; 0x3c
 8001ae4:	68fb      	ldr	r3, [r7, #12]
 8001ae6:	2221      	movs	r2, #33	; 0x21
 8001ae8:	f883 2039 	strb.w	r2, [r3, #57]	; 0x39
 8001aec:	f7ff f8f2 	bl	8000cd4 <HAL_GetTick>
 8001af0:	6178      	str	r0, [r7, #20]
 8001af2:	68fb      	ldr	r3, [r7, #12]
 8001af4:	88fa      	ldrh	r2, [r7, #6]
 8001af6:	849a      	strh	r2, [r3, #36]	; 0x24
 8001af8:	68fb      	ldr	r3, [r7, #12]
 8001afa:	88fa      	ldrh	r2, [r7, #6]
 8001afc:	84da      	strh	r2, [r3, #38]	; 0x26
 8001afe:	e042      	b.n	8001b86 <HAL_UART_Transmit+0xf0>
 8001b00:	68fb      	ldr	r3, [r7, #12]
 8001b02:	8cdb      	ldrh	r3, [r3, #38]	; 0x26
 8001b04:	b29b      	uxth	r3, r3
 8001b06:	3b01      	subs	r3, #1
 8001b08:	b29a      	uxth	r2, r3
 8001b0a:	68fb      	ldr	r3, [r7, #12]
 8001b0c:	84da      	strh	r2, [r3, #38]	; 0x26
 8001b0e:	68fb      	ldr	r3, [r7, #12]
 8001b10:	689b      	ldr	r3, [r3, #8]
 8001b12:	f5b3 5f80 	cmp.w	r3, #4096	; 0x1000
 8001b16:	d122      	bne.n	8001b5e <HAL_UART_Transmit+0xc8>
 8001b18:	683b      	ldr	r3, [r7, #0]
 8001b1a:	9300      	str	r3, [sp, #0]
 8001b1c:	697b      	ldr	r3, [r7, #20]
 8001b1e:	2200      	movs	r2, #0
 8001b20:	2180      	movs	r1, #128	; 0x80
 8001b22:	68f8      	ldr	r0, [r7, #12]
 8001b24:	f000 f850 	bl	8001bc8 <UART_WaitOnFlagUntilTimeout>
 8001b28:	4603      	mov	r3, r0
 8001b2a:	2b00      	cmp	r3, #0
 8001b2c:	d001      	beq.n	8001b32 <HAL_UART_Transmit+0x9c>
 8001b2e:	2303      	movs	r3, #3
 8001b30:	e046      	b.n	8001bc0 <HAL_UART_Transmit+0x12a>
 8001b32:	68bb      	ldr	r3, [r7, #8]
 8001b34:	613b      	str	r3, [r7, #16]
 8001b36:	693b      	ldr	r3, [r7, #16]
 8001b38:	881b      	ldrh	r3, [r3, #0]
 8001b3a:	461a      	mov	r2, r3
 8001b3c:	68fb      	ldr	r3, [r7, #12]
 8001b3e:	681b      	ldr	r3, [r3, #0]
 8001b40:	f3c2 0208 	ubfx	r2, r2, #0, #9
 8001b44:	605a      	str	r2, [r3, #4]
 8001b46:	68fb      	ldr	r3, [r7, #12]
 8001b48:	691b      	ldr	r3, [r3, #16]
 8001b4a:	2b00      	cmp	r3, #0
 8001b4c:	d103      	bne.n	8001b56 <HAL_UART_Transmit+0xc0>
 8001b4e:	68bb      	ldr	r3, [r7, #8]
 8001b50:	3302      	adds	r3, #2
 8001b52:	60bb      	str	r3, [r7, #8]
 8001b54:	e017      	b.n	8001b86 <HAL_UART_Transmit+0xf0>
 8001b56:	68bb      	ldr	r3, [r7, #8]
 8001b58:	3301      	adds	r3, #1
 8001b5a:	60bb      	str	r3, [r7, #8]
 8001b5c:	e013      	b.n	8001b86 <HAL_UART_Transmit+0xf0>
 8001b5e:	683b      	ldr	r3, [r7, #0]
 8001b60:	9300      	str	r3, [sp, #0]
 8001b62:	697b      	ldr	r3, [r7, #20]
 8001b64:	2200      	movs	r2, #0
 8001b66:	2180      	movs	r1, #128	; 0x80
 8001b68:	68f8      	ldr	r0, [r7, #12]
 8001b6a:	f000 f82d 	bl	8001bc8 <UART_WaitOnFlagUntilTimeout>
 8001b6e:	4603      	mov	r3, r0
 8001b70:	2b00      	cmp	r3, #0
 8001b72:	d001      	beq.n	8001b78 <HAL_UART_Transmit+0xe2>
 8001b74:	2303      	movs	r3, #3
 8001b76:	e023      	b.n	8001bc0 <HAL_UART_Transmit+0x12a>
 8001b78:	68bb      	ldr	r3, [r7, #8]
 8001b7a:	1c5a      	adds	r2, r3, #1
 8001b7c:	60ba      	str	r2, [r7, #8]
 8001b7e:	781a      	ldrb	r2, [r3, #0]
 8001b80:	68fb      	ldr	r3, [r7, #12]
 8001b82:	681b      	ldr	r3, [r3, #0]
 8001b84:	605a      	str	r2, [r3, #4]
 8001b86:	68fb      	ldr	r3, [r7, #12]
 8001b88:	8cdb      	ldrh	r3, [r3, #38]	; 0x26
 8001b8a:	b29b      	uxth	r3, r3
 8001b8c:	2b00      	cmp	r3, #0
 8001b8e:	d1b7      	bne.n	8001b00 <HAL_UART_Transmit+0x6a>
 8001b90:	683b      	ldr	r3, [r7, #0]
 8001b92:	9300      	str	r3, [sp, #0]
 8001b94:	697b      	ldr	r3, [r7, #20]
 8001b96:	2200      	movs	r2, #0
 8001b98:	2140      	movs	r1, #64	; 0x40
 8001b9a:	68f8      	ldr	r0, [r7, #12]
 8001b9c:	f000 f814 	bl	8001bc8 <UART_WaitOnFlagUntilTimeout>
 8001ba0:	4603      	mov	r3, r0
 8001ba2:	2b00      	cmp	r3, #0
 8001ba4:	d001      	beq.n	8001baa <HAL_UART_Transmit+0x114>
 8001ba6:	2303      	movs	r3, #3
 8001ba8:	e00a      	b.n	8001bc0 <HAL_UART_Transmit+0x12a>
 8001baa:	68fb      	ldr	r3, [r7, #12]
 8001bac:	2220      	movs	r2, #32
 8001bae:	f883 2039 	strb.w	r2, [r3, #57]	; 0x39
 8001bb2:	68fb      	ldr	r3, [r7, #12]
 8001bb4:	2200      	movs	r2, #0
 8001bb6:	f883 2038 	strb.w	r2, [r3, #56]	; 0x38
 8001bba:	2300      	movs	r3, #0
 8001bbc:	e000      	b.n	8001bc0 <HAL_UART_Transmit+0x12a>
 8001bbe:	2302      	movs	r3, #2
 8001bc0:	4618      	mov	r0, r3
 8001bc2:	3718      	adds	r7, #24
 8001bc4:	46bd      	mov	sp, r7
 8001bc6:	bd80      	pop	{r7, pc}

08001bc8 <UART_WaitOnFlagUntilTimeout>:
 8001bc8:	b580      	push	{r7, lr}
 8001bca:	b084      	sub	sp, #16
 8001bcc:	af00      	add	r7, sp, #0
 8001bce:	60f8      	str	r0, [r7, #12]
 8001bd0:	60b9      	str	r1, [r7, #8]
 8001bd2:	603b      	str	r3, [r7, #0]
 8001bd4:	4613      	mov	r3, r2
 8001bd6:	71fb      	strb	r3, [r7, #7]
 8001bd8:	e02c      	b.n	8001c34 <UART_WaitOnFlagUntilTimeout+0x6c>
 8001bda:	69bb      	ldr	r3, [r7, #24]
 8001bdc:	f1b3 3fff 	cmp.w	r3, #4294967295
 8001be0:	d028      	beq.n	8001c34 <UART_WaitOnFlagUntilTimeout+0x6c>
 8001be2:	69bb      	ldr	r3, [r7, #24]
 8001be4:	2b00      	cmp	r3, #0
 8001be6:	d007      	beq.n	8001bf8 <UART_WaitOnFlagUntilTimeout+0x30>
 8001be8:	f7ff f874 	bl	8000cd4 <HAL_GetTick>
 8001bec:	4602      	mov	r2, r0
 8001bee:	683b      	ldr	r3, [r7, #0]
 8001bf0:	1ad3      	subs	r3, r2, r3
 8001bf2:	69ba      	ldr	r2, [r7, #24]
 8001bf4:	429a      	cmp	r2, r3
 8001bf6:	d21d      	bcs.n	8001c34 <UART_WaitOnFlagUntilTimeout+0x6c>
 8001bf8:	68fb      	ldr	r3, [r7, #12]
 8001bfa:	681b      	ldr	r3, [r3, #0]
 8001bfc:	68da      	ldr	r2, [r3, #12]
 8001bfe:	68fb      	ldr	r3, [r7, #12]
 8001c00:	681b      	ldr	r3, [r3, #0]
 8001c02:	f422 72d0 	bic.w	r2, r2, #416	; 0x1a0
 8001c06:	60da      	str	r2, [r3, #12]
 8001c08:	68fb      	ldr	r3, [r7, #12]
 8001c0a:	681b      	ldr	r3, [r3, #0]
 8001c0c:	695a      	ldr	r2, [r3, #20]
 8001c0e:	68fb      	ldr	r3, [r7, #12]
 8001c10:	681b      	ldr	r3, [r3, #0]
 8001c12:	f022 0201 	bic.w	r2, r2, #1
 8001c16:	615a      	str	r2, [r3, #20]
 8001c18:	68fb      	ldr	r3, [r7, #12]
 8001c1a:	2220      	movs	r2, #32
 8001c1c:	f883 2039 	strb.w	r2, [r3, #57]	; 0x39
 8001c20:	68fb      	ldr	r3, [r7, #12]
 8001c22:	2220      	movs	r2, #32
 8001c24:	f883 203a 	strb.w	r2, [r3, #58]	; 0x3a
 8001c28:	68fb      	ldr	r3, [r7, #12]
 8001c2a:	2200      	movs	r2, #0
 8001c2c:	f883 2038 	strb.w	r2, [r3, #56]	; 0x38
 8001c30:	2303      	movs	r3, #3
 8001c32:	e00f      	b.n	8001c54 <UART_WaitOnFlagUntilTimeout+0x8c>
 8001c34:	68fb      	ldr	r3, [r7, #12]
 8001c36:	681b      	ldr	r3, [r3, #0]
 8001c38:	681a      	ldr	r2, [r3, #0]
 8001c3a:	68bb      	ldr	r3, [r7, #8]
 8001c3c:	4013      	ands	r3, r2
 8001c3e:	68ba      	ldr	r2, [r7, #8]
 8001c40:	429a      	cmp	r2, r3
 8001c42:	bf0c      	ite	eq
 8001c44:	2301      	moveq	r3, #1
 8001c46:	2300      	movne	r3, #0
 8001c48:	b2db      	uxtb	r3, r3
 8001c4a:	461a      	mov	r2, r3
 8001c4c:	79fb      	ldrb	r3, [r7, #7]
 8001c4e:	429a      	cmp	r2, r3
 8001c50:	d0c3      	beq.n	8001bda <UART_WaitOnFlagUntilTimeout+0x12>
 8001c52:	2300      	movs	r3, #0
 8001c54:	4618      	mov	r0, r3
 8001c56:	3710      	adds	r7, #16
 8001c58:	46bd      	mov	sp, r7
 8001c5a:	bd80      	pop	{r7, pc}

08001c5c <UART_SetConfig>:
 8001c5c:	b580      	push	{r7, lr}
 8001c5e:	b084      	sub	sp, #16
 8001c60:	af00      	add	r7, sp, #0
 8001c62:	6078      	str	r0, [r7, #4]
 8001c64:	687b      	ldr	r3, [r7, #4]
 8001c66:	681b      	ldr	r3, [r3, #0]
 8001c68:	691b      	ldr	r3, [r3, #16]
 8001c6a:	f423 5140 	bic.w	r1, r3, #12288	; 0x3000
 8001c6e:	687b      	ldr	r3, [r7, #4]
 8001c70:	68da      	ldr	r2, [r3, #12]
 8001c72:	687b      	ldr	r3, [r7, #4]
 8001c74:	681b      	ldr	r3, [r3, #0]
 8001c76:	430a      	orrs	r2, r1
 8001c78:	611a      	str	r2, [r3, #16]
 8001c7a:	687b      	ldr	r3, [r7, #4]
 8001c7c:	689a      	ldr	r2, [r3, #8]
 8001c7e:	687b      	ldr	r3, [r7, #4]
 8001c80:	691b      	ldr	r3, [r3, #16]
 8001c82:	431a      	orrs	r2, r3
 8001c84:	687b      	ldr	r3, [r7, #4]
 8001c86:	695b      	ldr	r3, [r3, #20]
 8001c88:	4313      	orrs	r3, r2
 8001c8a:	60fb      	str	r3, [r7, #12]
 8001c8c:	687b      	ldr	r3, [r7, #4]
 8001c8e:	681b      	ldr	r3, [r3, #0]
 8001c90:	68db      	ldr	r3, [r3, #12]
 8001c92:	f423 53b0 	bic.w	r3, r3, #5632	; 0x1600
 8001c96:	f023 030c 	bic.w	r3, r3, #12
 8001c9a:	687a      	ldr	r2, [r7, #4]
 8001c9c:	6812      	ldr	r2, [r2, #0]
 8001c9e:	68f9      	ldr	r1, [r7, #12]
 8001ca0:	430b      	orrs	r3, r1
 8001ca2:	60d3      	str	r3, [r2, #12]
 8001ca4:	687b      	ldr	r3, [r7, #4]
 8001ca6:	681b      	ldr	r3, [r3, #0]
 8001ca8:	695b      	ldr	r3, [r3, #20]
 8001caa:	f423 7140 	bic.w	r1, r3, #768	; 0x300
 8001cae:	687b      	ldr	r3, [r7, #4]
 8001cb0:	699a      	ldr	r2, [r3, #24]
 8001cb2:	687b      	ldr	r3, [r7, #4]
 8001cb4:	681b      	ldr	r3, [r3, #0]
 8001cb6:	430a      	orrs	r2, r1
 8001cb8:	615a      	str	r2, [r3, #20]
 8001cba:	687b      	ldr	r3, [r7, #4]
 8001cbc:	681b      	ldr	r3, [r3, #0]
 8001cbe:	4a52      	ldr	r2, [pc, #328]	; (8001e08 <UART_SetConfig+0x1ac>)
 8001cc0:	4293      	cmp	r3, r2
 8001cc2:	d14e      	bne.n	8001d62 <UART_SetConfig+0x106>
 8001cc4:	f7ff fe68 	bl	8001998 <HAL_RCC_GetPCLK2Freq>
 8001cc8:	60b8      	str	r0, [r7, #8]
 8001cca:	68ba      	ldr	r2, [r7, #8]
 8001ccc:	4613      	mov	r3, r2
 8001cce:	009b      	lsls	r3, r3, #2
 8001cd0:	4413      	add	r3, r2
 8001cd2:	009a      	lsls	r2, r3, #2
 8001cd4:	441a      	add	r2, r3
 8001cd6:	687b      	ldr	r3, [r7, #4]
 8001cd8:	685b      	ldr	r3, [r3, #4]
 8001cda:	009b      	lsls	r3, r3, #2
 8001cdc:	fbb2 f3f3 	udiv	r3, r2, r3
 8001ce0:	4a4a      	ldr	r2, [pc, #296]	; (8001e0c <UART_SetConfig+0x1b0>)
 8001ce2:	fba2 2303 	umull	r2, r3, r2, r3
 8001ce6:	095b      	lsrs	r3, r3, #5
 8001ce8:	0119      	lsls	r1, r3, #4
 8001cea:	68ba      	ldr	r2, [r7, #8]
 8001cec:	4613      	mov	r3, r2
 8001cee:	009b      	lsls	r3, r3, #2
 8001cf0:	4413      	add	r3, r2
 8001cf2:	009a      	lsls	r2, r3, #2
 8001cf4:	441a      	add	r2, r3
 8001cf6:	687b      	ldr	r3, [r7, #4]
 8001cf8:	685b      	ldr	r3, [r3, #4]
 8001cfa:	009b      	lsls	r3, r3, #2
 8001cfc:	fbb2 f2f3 	udiv	r2, r2, r3
 8001d00:	4b42      	ldr	r3, [pc, #264]	; (8001e0c <UART_SetConfig+0x1b0>)
 8001d02:	fba3 0302 	umull	r0, r3, r3, r2
 8001d06:	095b      	lsrs	r3, r3, #5
 8001d08:	2064      	movs	r0, #100	; 0x64
 8001d0a:	fb00 f303 	mul.w	r3, r0, r3
 8001d0e:	1ad3      	subs	r3, r2, r3
 8001d10:	011b      	lsls	r3, r3, #4
 8001d12:	3332      	adds	r3, #50	; 0x32
 8001d14:	4a3d      	ldr	r2, [pc, #244]	; (8001e0c <UART_SetConfig+0x1b0>)
 8001d16:	fba2 2303 	umull	r2, r3, r2, r3
 8001d1a:	095b      	lsrs	r3, r3, #5
 8001d1c:	f003 03f0 	and.w	r3, r3, #240	; 0xf0
 8001d20:	4419      	add	r1, r3
 8001d22:	68ba      	ldr	r2, [r7, #8]
 8001d24:	4613      	mov	r3, r2
 8001d26:	009b      	lsls	r3, r3, #2
 8001d28:	4413      	add	r3, r2
 8001d2a:	009a      	lsls	r2, r3, #2
 8001d2c:	441a      	add	r2, r3
 8001d2e:	687b      	ldr	r3, [r7, #4]
 8001d30:	685b      	ldr	r3, [r3, #4]
 8001d32:	009b      	lsls	r3, r3, #2
 8001d34:	fbb2 f2f3 	udiv	r2, r2, r3
 8001d38:	4b34      	ldr	r3, [pc, #208]	; (8001e0c <UART_SetConfig+0x1b0>)
 8001d3a:	fba3 0302 	umull	r0, r3, r3, r2
 8001d3e:	095b      	lsrs	r3, r3, #5
 8001d40:	2064      	movs	r0, #100	; 0x64
 8001d42:	fb00 f303 	mul.w	r3, r0, r3
 8001d46:	1ad3      	subs	r3, r2, r3
 8001d48:	011b      	lsls	r3, r3, #4
 8001d4a:	3332      	adds	r3, #50	; 0x32
 8001d4c:	4a2f      	ldr	r2, [pc, #188]	; (8001e0c <UART_SetConfig+0x1b0>)
 8001d4e:	fba2 2303 	umull	r2, r3, r2, r3
 8001d52:	095b      	lsrs	r3, r3, #5
 8001d54:	f003 020f 	and.w	r2, r3, #15
 8001d58:	687b      	ldr	r3, [r7, #4]
 8001d5a:	681b      	ldr	r3, [r3, #0]
 8001d5c:	440a      	add	r2, r1
 8001d5e:	609a      	str	r2, [r3, #8]
 8001d60:	e04d      	b.n	8001dfe <UART_SetConfig+0x1a2>
 8001d62:	f7ff fe05 	bl	8001970 <HAL_RCC_GetPCLK1Freq>
 8001d66:	60b8      	str	r0, [r7, #8]
 8001d68:	68ba      	ldr	r2, [r7, #8]
 8001d6a:	4613      	mov	r3, r2
 8001d6c:	009b      	lsls	r3, r3, #2
 8001d6e:	4413      	add	r3, r2
 8001d70:	009a      	lsls	r2, r3, #2
 8001d72:	441a      	add	r2, r3
 8001d74:	687b      	ldr	r3, [r7, #4]
 8001d76:	685b      	ldr	r3, [r3, #4]
 8001d78:	009b      	lsls	r3, r3, #2
 8001d7a:	fbb2 f3f3 	udiv	r3, r2, r3
 8001d7e:	4a23      	ldr	r2, [pc, #140]	; (8001e0c <UART_SetConfig+0x1b0>)
 8001d80:	fba2 2303 	umull	r2, r3, r2, r3
 8001d84:	095b      	lsrs	r3, r3, #5
 8001d86:	0119      	lsls	r1, r3, #4
 8001d88:	68ba      	ldr	r2, [r7, #8]
 8001d8a:	4613      	mov	r3, r2
 8001d8c:	009b      	lsls	r3, r3, #2
 8001d8e:	4413      	add	r3, r2
 8001d90:	009a      	lsls	r2, r3, #2
 8001d92:	441a      	add	r2, r3
 8001d94:	687b      	ldr	r3, [r7, #4]
 8001d96:	685b      	ldr	r3, [r3, #4]
 8001d98:	009b      	lsls	r3, r3, #2
 8001d9a:	fbb2 f2f3 	udiv	r2, r2, r3
 8001d9e:	4b1b      	ldr	r3, [pc, #108]	; (8001e0c <UART_SetConfig+0x1b0>)
 8001da0:	fba3 0302 	umull	r0, r3, r3, r2
 8001da4:	095b      	lsrs	r3, r3, #5
 8001da6:	2064      	movs	r0, #100	; 0x64
 8001da8:	fb00 f303 	mul.w	r3, r0, r3
 8001dac:	1ad3      	subs	r3, r2, r3
 8001dae:	011b      	lsls	r3, r3, #4
 8001db0:	3332      	adds	r3, #50	; 0x32
 8001db2:	4a16      	ldr	r2, [pc, #88]	; (8001e0c <UART_SetConfig+0x1b0>)
 8001db4:	fba2 2303 	umull	r2, r3, r2, r3
 8001db8:	095b      	lsrs	r3, r3, #5
 8001dba:	f003 03f0 	and.w	r3, r3, #240	; 0xf0
 8001dbe:	4419      	add	r1, r3
 8001dc0:	68ba      	ldr	r2, [r7, #8]
 8001dc2:	4613      	mov	r3, r2
 8001dc4:	009b      	lsls	r3, r3, #2
 8001dc6:	4413      	add	r3, r2
 8001dc8:	009a      	lsls	r2, r3, #2
 8001dca:	441a      	add	r2, r3
 8001dcc:	687b      	ldr	r3, [r7, #4]
 8001dce:	685b      	ldr	r3, [r3, #4]
 8001dd0:	009b      	lsls	r3, r3, #2
 8001dd2:	fbb2 f2f3 	udiv	r2, r2, r3
 8001dd6:	4b0d      	ldr	r3, [pc, #52]	; (8001e0c <UART_SetConfig+0x1b0>)
 8001dd8:	fba3 0302 	umull	r0, r3, r3, r2
 8001ddc:	095b      	lsrs	r3, r3, #5
 8001dde:	2064      	movs	r0, #100	; 0x64
 8001de0:	fb00 f303 	mul.w	r3, r0, r3
 8001de4:	1ad3      	subs	r3, r2, r3
 8001de6:	011b      	lsls	r3, r3, #4
 8001de8:	3332      	adds	r3, #50	; 0x32
 8001dea:	4a08      	ldr	r2, [pc, #32]	; (8001e0c <UART_SetConfig+0x1b0>)
 8001dec:	fba2 2303 	umull	r2, r3, r2, r3
 8001df0:	095b      	lsrs	r3, r3, #5
 8001df2:	f003 020f 	and.w	r2, r3, #15
 8001df6:	687b      	ldr	r3, [r7, #4]
 8001df8:	681b      	ldr	r3, [r3, #0]
 8001dfa:	440a      	add	r2, r1
 8001dfc:	609a      	str	r2, [r3, #8]
 8001dfe:	bf00      	nop
 8001e00:	3710      	adds	r7, #16
 8001e02:	46bd      	mov	sp, r7
 8001e04:	bd80      	pop	{r7, pc}
 8001e06:	bf00      	nop
 8001e08:	40013800 	.word	0x40013800
 8001e0c:	51eb851f 	.word	0x51eb851f

08001e10 <osKernelInitialize>:
 8001e10:	b480      	push	{r7}
 8001e12:	b085      	sub	sp, #20
 8001e14:	af00      	add	r7, sp, #0
 8001e16:	f3ef 8305 	mrs	r3, IPSR
 8001e1a:	60bb      	str	r3, [r7, #8]
 8001e1c:	68bb      	ldr	r3, [r7, #8]
 8001e1e:	2b00      	cmp	r3, #0
 8001e20:	d10f      	bne.n	8001e42 <osKernelInitialize+0x32>
 8001e22:	f3ef 8310 	mrs	r3, PRIMASK
 8001e26:	607b      	str	r3, [r7, #4]
 8001e28:	687b      	ldr	r3, [r7, #4]
 8001e2a:	2b00      	cmp	r3, #0
 8001e2c:	d109      	bne.n	8001e42 <osKernelInitialize+0x32>
 8001e2e:	4b10      	ldr	r3, [pc, #64]	; (8001e70 <osKernelInitialize+0x60>)
 8001e30:	681b      	ldr	r3, [r3, #0]
 8001e32:	2b02      	cmp	r3, #2
 8001e34:	d109      	bne.n	8001e4a <osKernelInitialize+0x3a>
 8001e36:	f3ef 8311 	mrs	r3, BASEPRI
 8001e3a:	603b      	str	r3, [r7, #0]
 8001e3c:	683b      	ldr	r3, [r7, #0]
 8001e3e:	2b00      	cmp	r3, #0
 8001e40:	d003      	beq.n	8001e4a <osKernelInitialize+0x3a>
 8001e42:	f06f 0305 	mvn.w	r3, #5
 8001e46:	60fb      	str	r3, [r7, #12]
 8001e48:	e00c      	b.n	8001e64 <osKernelInitialize+0x54>
 8001e4a:	4b09      	ldr	r3, [pc, #36]	; (8001e70 <osKernelInitialize+0x60>)
 8001e4c:	681b      	ldr	r3, [r3, #0]
 8001e4e:	2b00      	cmp	r3, #0
 8001e50:	d105      	bne.n	8001e5e <osKernelInitialize+0x4e>
 8001e52:	4b07      	ldr	r3, [pc, #28]	; (8001e70 <osKernelInitialize+0x60>)
 8001e54:	2201      	movs	r2, #1
 8001e56:	601a      	str	r2, [r3, #0]
 8001e58:	2300      	movs	r3, #0
 8001e5a:	60fb      	str	r3, [r7, #12]
 8001e5c:	e002      	b.n	8001e64 <osKernelInitialize+0x54>
 8001e5e:	f04f 33ff 	mov.w	r3, #4294967295
 8001e62:	60fb      	str	r3, [r7, #12]
 8001e64:	68fb      	ldr	r3, [r7, #12]
 8001e66:	4618      	mov	r0, r3
 8001e68:	3714      	adds	r7, #20
 8001e6a:	46bd      	mov	sp, r7
 8001e6c:	bc80      	pop	{r7}
 8001e6e:	4770      	bx	lr
 8001e70:	200000a8 	.word	0x200000a8

08001e74 <osKernelStart>:
 8001e74:	b580      	push	{r7, lr}
 8001e76:	b084      	sub	sp, #16
 8001e78:	af00      	add	r7, sp, #0
 8001e7a:	f3ef 8305 	mrs	r3, IPSR
 8001e7e:	60bb      	str	r3, [r7, #8]
 8001e80:	68bb      	ldr	r3, [r7, #8]
 8001e82:	2b00      	cmp	r3, #0
 8001e84:	d10f      	bne.n	8001ea6 <osKernelStart+0x32>
 8001e86:	f3ef 8310 	mrs	r3, PRIMASK
 8001e8a:	607b      	str	r3, [r7, #4]
 8001e8c:	687b      	ldr	r3, [r7, #4]
 8001e8e:	2b00      	cmp	r3, #0
 8001e90:	d109      	bne.n	8001ea6 <osKernelStart+0x32>
 8001e92:	4b11      	ldr	r3, [pc, #68]	; (8001ed8 <osKernelStart+0x64>)
 8001e94:	681b      	ldr	r3, [r3, #0]
 8001e96:	2b02      	cmp	r3, #2
 8001e98:	d109      	bne.n	8001eae <osKernelStart+0x3a>
 8001e9a:	f3ef 8311 	mrs	r3, BASEPRI
 8001e9e:	603b      	str	r3, [r7, #0]
 8001ea0:	683b      	ldr	r3, [r7, #0]
 8001ea2:	2b00      	cmp	r3, #0
 8001ea4:	d003      	beq.n	8001eae <osKernelStart+0x3a>
 8001ea6:	f06f 0305 	mvn.w	r3, #5
 8001eaa:	60fb      	str	r3, [r7, #12]
 8001eac:	e00e      	b.n	8001ecc <osKernelStart+0x58>
 8001eae:	4b0a      	ldr	r3, [pc, #40]	; (8001ed8 <osKernelStart+0x64>)
 8001eb0:	681b      	ldr	r3, [r3, #0]
 8001eb2:	2b01      	cmp	r3, #1
 8001eb4:	d107      	bne.n	8001ec6 <osKernelStart+0x52>
 8001eb6:	4b08      	ldr	r3, [pc, #32]	; (8001ed8 <osKernelStart+0x64>)
 8001eb8:	2202      	movs	r2, #2
 8001eba:	601a      	str	r2, [r3, #0]
 8001ebc:	f001 f944 	bl	8003148 <vTaskStartScheduler>
 8001ec0:	2300      	movs	r3, #0
 8001ec2:	60fb      	str	r3, [r7, #12]
 8001ec4:	e002      	b.n	8001ecc <osKernelStart+0x58>
 8001ec6:	f04f 33ff 	mov.w	r3, #4294967295
 8001eca:	60fb      	str	r3, [r7, #12]
 8001ecc:	68fb      	ldr	r3, [r7, #12]
 8001ece:	4618      	mov	r0, r3
 8001ed0:	3710      	adds	r7, #16
 8001ed2:	46bd      	mov	sp, r7
 8001ed4:	bd80      	pop	{r7, pc}
 8001ed6:	bf00      	nop
 8001ed8:	200000a8 	.word	0x200000a8

08001edc <osThreadNew>:
 8001edc:	b580      	push	{r7, lr}
 8001ede:	b092      	sub	sp, #72	; 0x48
 8001ee0:	af04      	add	r7, sp, #16
 8001ee2:	60f8      	str	r0, [r7, #12]
 8001ee4:	60b9      	str	r1, [r7, #8]
 8001ee6:	607a      	str	r2, [r7, #4]
 8001ee8:	2300      	movs	r3, #0
 8001eea:	617b      	str	r3, [r7, #20]
 8001eec:	f3ef 8305 	mrs	r3, IPSR
 8001ef0:	627b      	str	r3, [r7, #36]	; 0x24
 8001ef2:	6a7b      	ldr	r3, [r7, #36]	; 0x24
 8001ef4:	2b00      	cmp	r3, #0
 8001ef6:	f040 8094 	bne.w	8002022 <osThreadNew+0x146>
 8001efa:	f3ef 8310 	mrs	r3, PRIMASK
 8001efe:	623b      	str	r3, [r7, #32]
 8001f00:	6a3b      	ldr	r3, [r7, #32]
 8001f02:	2b00      	cmp	r3, #0
 8001f04:	f040 808d 	bne.w	8002022 <osThreadNew+0x146>
 8001f08:	4b48      	ldr	r3, [pc, #288]	; (800202c <osThreadNew+0x150>)
 8001f0a:	681b      	ldr	r3, [r3, #0]
 8001f0c:	2b02      	cmp	r3, #2
 8001f0e:	d106      	bne.n	8001f1e <osThreadNew+0x42>
 8001f10:	f3ef 8311 	mrs	r3, BASEPRI
 8001f14:	61fb      	str	r3, [r7, #28]
 8001f16:	69fb      	ldr	r3, [r7, #28]
 8001f18:	2b00      	cmp	r3, #0
 8001f1a:	f040 8082 	bne.w	8002022 <osThreadNew+0x146>
 8001f1e:	68fb      	ldr	r3, [r7, #12]
 8001f20:	2b00      	cmp	r3, #0
 8001f22:	d07e      	beq.n	8002022 <osThreadNew+0x146>
 8001f24:	2340      	movs	r3, #64	; 0x40
 8001f26:	633b      	str	r3, [r7, #48]	; 0x30
 8001f28:	2318      	movs	r3, #24
 8001f2a:	62fb      	str	r3, [r7, #44]	; 0x2c
 8001f2c:	2300      	movs	r3, #0
 8001f2e:	76fb      	strb	r3, [r7, #27]
 8001f30:	f107 031b 	add.w	r3, r7, #27
 8001f34:	637b      	str	r3, [r7, #52]	; 0x34
 8001f36:	f04f 33ff 	mov.w	r3, #4294967295
 8001f3a:	62bb      	str	r3, [r7, #40]	; 0x28
 8001f3c:	687b      	ldr	r3, [r7, #4]
 8001f3e:	2b00      	cmp	r3, #0
 8001f40:	d045      	beq.n	8001fce <osThreadNew+0xf2>
 8001f42:	687b      	ldr	r3, [r7, #4]
 8001f44:	681b      	ldr	r3, [r3, #0]
 8001f46:	2b00      	cmp	r3, #0
 8001f48:	d002      	beq.n	8001f50 <osThreadNew+0x74>
 8001f4a:	687b      	ldr	r3, [r7, #4]
 8001f4c:	681b      	ldr	r3, [r3, #0]
 8001f4e:	637b      	str	r3, [r7, #52]	; 0x34
 8001f50:	687b      	ldr	r3, [r7, #4]
 8001f52:	699b      	ldr	r3, [r3, #24]
 8001f54:	2b00      	cmp	r3, #0
 8001f56:	d002      	beq.n	8001f5e <osThreadNew+0x82>
 8001f58:	687b      	ldr	r3, [r7, #4]
 8001f5a:	699b      	ldr	r3, [r3, #24]
 8001f5c:	62fb      	str	r3, [r7, #44]	; 0x2c
 8001f5e:	6afb      	ldr	r3, [r7, #44]	; 0x2c
 8001f60:	2b00      	cmp	r3, #0
 8001f62:	d008      	beq.n	8001f76 <osThreadNew+0x9a>
 8001f64:	6afb      	ldr	r3, [r7, #44]	; 0x2c
 8001f66:	2b38      	cmp	r3, #56	; 0x38
 8001f68:	d805      	bhi.n	8001f76 <osThreadNew+0x9a>
 8001f6a:	687b      	ldr	r3, [r7, #4]
 8001f6c:	685b      	ldr	r3, [r3, #4]
 8001f6e:	f003 0301 	and.w	r3, r3, #1
 8001f72:	2b00      	cmp	r3, #0
 8001f74:	d001      	beq.n	8001f7a <osThreadNew+0x9e>
 8001f76:	2300      	movs	r3, #0
 8001f78:	e054      	b.n	8002024 <osThreadNew+0x148>
 8001f7a:	687b      	ldr	r3, [r7, #4]
 8001f7c:	695b      	ldr	r3, [r3, #20]
 8001f7e:	2b00      	cmp	r3, #0
 8001f80:	d003      	beq.n	8001f8a <osThreadNew+0xae>
 8001f82:	687b      	ldr	r3, [r7, #4]
 8001f84:	695b      	ldr	r3, [r3, #20]
 8001f86:	089b      	lsrs	r3, r3, #2
 8001f88:	633b      	str	r3, [r7, #48]	; 0x30
 8001f8a:	687b      	ldr	r3, [r7, #4]
 8001f8c:	689b      	ldr	r3, [r3, #8]
 8001f8e:	2b00      	cmp	r3, #0
 8001f90:	d00e      	beq.n	8001fb0 <osThreadNew+0xd4>
 8001f92:	687b      	ldr	r3, [r7, #4]
 8001f94:	68db      	ldr	r3, [r3, #12]
 8001f96:	2b5b      	cmp	r3, #91	; 0x5b
 8001f98:	d90a      	bls.n	8001fb0 <osThreadNew+0xd4>
 8001f9a:	687b      	ldr	r3, [r7, #4]
 8001f9c:	691b      	ldr	r3, [r3, #16]
 8001f9e:	2b00      	cmp	r3, #0
 8001fa0:	d006      	beq.n	8001fb0 <osThreadNew+0xd4>
 8001fa2:	687b      	ldr	r3, [r7, #4]
 8001fa4:	695b      	ldr	r3, [r3, #20]
 8001fa6:	2b00      	cmp	r3, #0
 8001fa8:	d002      	beq.n	8001fb0 <osThreadNew+0xd4>
 8001faa:	2301      	movs	r3, #1
 8001fac:	62bb      	str	r3, [r7, #40]	; 0x28
 8001fae:	e010      	b.n	8001fd2 <osThreadNew+0xf6>
 8001fb0:	687b      	ldr	r3, [r7, #4]
 8001fb2:	689b      	ldr	r3, [r3, #8]
 8001fb4:	2b00      	cmp	r3, #0
 8001fb6:	d10c      	bne.n	8001fd2 <osThreadNew+0xf6>
 8001fb8:	687b      	ldr	r3, [r7, #4]
 8001fba:	68db      	ldr	r3, [r3, #12]
 8001fbc:	2b00      	cmp	r3, #0
 8001fbe:	d108      	bne.n	8001fd2 <osThreadNew+0xf6>
 8001fc0:	687b      	ldr	r3, [r7, #4]
 8001fc2:	691b      	ldr	r3, [r3, #16]
 8001fc4:	2b00      	cmp	r3, #0
 8001fc6:	d104      	bne.n	8001fd2 <osThreadNew+0xf6>
 8001fc8:	2300      	movs	r3, #0
 8001fca:	62bb      	str	r3, [r7, #40]	; 0x28
 8001fcc:	e001      	b.n	8001fd2 <osThreadNew+0xf6>
 8001fce:	2300      	movs	r3, #0
 8001fd0:	62bb      	str	r3, [r7, #40]	; 0x28
 8001fd2:	6abb      	ldr	r3, [r7, #40]	; 0x28
 8001fd4:	2b01      	cmp	r3, #1
 8001fd6:	d110      	bne.n	8001ffa <osThreadNew+0x11e>
 8001fd8:	687b      	ldr	r3, [r7, #4]
 8001fda:	691b      	ldr	r3, [r3, #16]
 8001fdc:	687a      	ldr	r2, [r7, #4]
 8001fde:	6892      	ldr	r2, [r2, #8]
 8001fe0:	9202      	str	r2, [sp, #8]
 8001fe2:	9301      	str	r3, [sp, #4]
 8001fe4:	6afb      	ldr	r3, [r7, #44]	; 0x2c
 8001fe6:	9300      	str	r3, [sp, #0]
 8001fe8:	68bb      	ldr	r3, [r7, #8]
 8001fea:	6b3a      	ldr	r2, [r7, #48]	; 0x30
 8001fec:	6b79      	ldr	r1, [r7, #52]	; 0x34
 8001fee:	68f8      	ldr	r0, [r7, #12]
 8001ff0:	f000 fee2 	bl	8002db8 <xTaskCreateStatic>
 8001ff4:	4603      	mov	r3, r0
 8001ff6:	617b      	str	r3, [r7, #20]
 8001ff8:	e013      	b.n	8002022 <osThreadNew+0x146>
 8001ffa:	6abb      	ldr	r3, [r7, #40]	; 0x28
 8001ffc:	2b00      	cmp	r3, #0
 8001ffe:	d110      	bne.n	8002022 <osThreadNew+0x146>
 8002000:	6b3b      	ldr	r3, [r7, #48]	; 0x30
 8002002:	b29a      	uxth	r2, r3
 8002004:	f107 0314 	add.w	r3, r7, #20
 8002008:	9301      	str	r3, [sp, #4]
 800200a:	6afb      	ldr	r3, [r7, #44]	; 0x2c
 800200c:	9300      	str	r3, [sp, #0]
 800200e:	68bb      	ldr	r3, [r7, #8]
 8002010:	6b79      	ldr	r1, [r7, #52]	; 0x34
 8002012:	68f8      	ldr	r0, [r7, #12]
 8002014:	f000 ff29 	bl	8002e6a <xTaskCreate>
 8002018:	4603      	mov	r3, r0
 800201a:	2b01      	cmp	r3, #1
 800201c:	d001      	beq.n	8002022 <osThreadNew+0x146>
 800201e:	2300      	movs	r3, #0
 8002020:	617b      	str	r3, [r7, #20]
 8002022:	697b      	ldr	r3, [r7, #20]
 8002024:	4618      	mov	r0, r3
 8002026:	3738      	adds	r7, #56	; 0x38
 8002028:	46bd      	mov	sp, r7
 800202a:	bd80      	pop	{r7, pc}
 800202c:	200000a8 	.word	0x200000a8

08002030 <osDelay>:
 8002030:	b580      	push	{r7, lr}
 8002032:	b086      	sub	sp, #24
 8002034:	af00      	add	r7, sp, #0
 8002036:	6078      	str	r0, [r7, #4]
 8002038:	f3ef 8305 	mrs	r3, IPSR
 800203c:	613b      	str	r3, [r7, #16]
 800203e:	693b      	ldr	r3, [r7, #16]
 8002040:	2b00      	cmp	r3, #0
 8002042:	d10f      	bne.n	8002064 <osDelay+0x34>
 8002044:	f3ef 8310 	mrs	r3, PRIMASK
 8002048:	60fb      	str	r3, [r7, #12]
 800204a:	68fb      	ldr	r3, [r7, #12]
 800204c:	2b00      	cmp	r3, #0
 800204e:	d109      	bne.n	8002064 <osDelay+0x34>
 8002050:	4b0d      	ldr	r3, [pc, #52]	; (8002088 <osDelay+0x58>)
 8002052:	681b      	ldr	r3, [r3, #0]
 8002054:	2b02      	cmp	r3, #2
 8002056:	d109      	bne.n	800206c <osDelay+0x3c>
 8002058:	f3ef 8311 	mrs	r3, BASEPRI
 800205c:	60bb      	str	r3, [r7, #8]
 800205e:	68bb      	ldr	r3, [r7, #8]
 8002060:	2b00      	cmp	r3, #0
 8002062:	d003      	beq.n	800206c <osDelay+0x3c>
 8002064:	f06f 0305 	mvn.w	r3, #5
 8002068:	617b      	str	r3, [r7, #20]
 800206a:	e007      	b.n	800207c <osDelay+0x4c>
 800206c:	2300      	movs	r3, #0
 800206e:	617b      	str	r3, [r7, #20]
 8002070:	687b      	ldr	r3, [r7, #4]
 8002072:	2b00      	cmp	r3, #0
 8002074:	d002      	beq.n	800207c <osDelay+0x4c>
 8002076:	6878      	ldr	r0, [r7, #4]
 8002078:	f001 f832 	bl	80030e0 <vTaskDelay>
 800207c:	697b      	ldr	r3, [r7, #20]
 800207e:	4618      	mov	r0, r3
 8002080:	3718      	adds	r7, #24
 8002082:	46bd      	mov	sp, r7
 8002084:	bd80      	pop	{r7, pc}
 8002086:	bf00      	nop
 8002088:	200000a8 	.word	0x200000a8

0800208c <osMessageQueueNew>:
 800208c:	b580      	push	{r7, lr}
 800208e:	b08c      	sub	sp, #48	; 0x30
 8002090:	af02      	add	r7, sp, #8
 8002092:	60f8      	str	r0, [r7, #12]
 8002094:	60b9      	str	r1, [r7, #8]
 8002096:	607a      	str	r2, [r7, #4]
 8002098:	2300      	movs	r3, #0
 800209a:	627b      	str	r3, [r7, #36]	; 0x24
 800209c:	f3ef 8305 	mrs	r3, IPSR
 80020a0:	61bb      	str	r3, [r7, #24]
 80020a2:	69bb      	ldr	r3, [r7, #24]
 80020a4:	2b00      	cmp	r3, #0
 80020a6:	d170      	bne.n	800218a <osMessageQueueNew+0xfe>
 80020a8:	f3ef 8310 	mrs	r3, PRIMASK
 80020ac:	617b      	str	r3, [r7, #20]
 80020ae:	697b      	ldr	r3, [r7, #20]
 80020b0:	2b00      	cmp	r3, #0
 80020b2:	d16a      	bne.n	800218a <osMessageQueueNew+0xfe>
 80020b4:	4b37      	ldr	r3, [pc, #220]	; (8002194 <osMessageQueueNew+0x108>)
 80020b6:	681b      	ldr	r3, [r3, #0]
 80020b8:	2b02      	cmp	r3, #2
 80020ba:	d105      	bne.n	80020c8 <osMessageQueueNew+0x3c>
 80020bc:	f3ef 8311 	mrs	r3, BASEPRI
 80020c0:	613b      	str	r3, [r7, #16]
 80020c2:	693b      	ldr	r3, [r7, #16]
 80020c4:	2b00      	cmp	r3, #0
 80020c6:	d160      	bne.n	800218a <osMessageQueueNew+0xfe>
 80020c8:	68fb      	ldr	r3, [r7, #12]
 80020ca:	2b00      	cmp	r3, #0
 80020cc:	d05d      	beq.n	800218a <osMessageQueueNew+0xfe>
 80020ce:	68bb      	ldr	r3, [r7, #8]
 80020d0:	2b00      	cmp	r3, #0
 80020d2:	d05a      	beq.n	800218a <osMessageQueueNew+0xfe>
 80020d4:	f04f 33ff 	mov.w	r3, #4294967295
 80020d8:	623b      	str	r3, [r7, #32]
 80020da:	687b      	ldr	r3, [r7, #4]
 80020dc:	2b00      	cmp	r3, #0
 80020de:	d029      	beq.n	8002134 <osMessageQueueNew+0xa8>
 80020e0:	687b      	ldr	r3, [r7, #4]
 80020e2:	689b      	ldr	r3, [r3, #8]
 80020e4:	2b00      	cmp	r3, #0
 80020e6:	d012      	beq.n	800210e <osMessageQueueNew+0x82>
 80020e8:	687b      	ldr	r3, [r7, #4]
 80020ea:	68db      	ldr	r3, [r3, #12]
 80020ec:	2b4f      	cmp	r3, #79	; 0x4f
 80020ee:	d90e      	bls.n	800210e <osMessageQueueNew+0x82>
 80020f0:	687b      	ldr	r3, [r7, #4]
 80020f2:	691b      	ldr	r3, [r3, #16]
 80020f4:	2b00      	cmp	r3, #0
 80020f6:	d00a      	beq.n	800210e <osMessageQueueNew+0x82>
 80020f8:	687b      	ldr	r3, [r7, #4]
 80020fa:	695a      	ldr	r2, [r3, #20]
 80020fc:	68fb      	ldr	r3, [r7, #12]
 80020fe:	68b9      	ldr	r1, [r7, #8]
 8002100:	fb01 f303 	mul.w	r3, r1, r3
 8002104:	429a      	cmp	r2, r3
 8002106:	d302      	bcc.n	800210e <osMessageQueueNew+0x82>
 8002108:	2301      	movs	r3, #1
 800210a:	623b      	str	r3, [r7, #32]
 800210c:	e014      	b.n	8002138 <osMessageQueueNew+0xac>
 800210e:	687b      	ldr	r3, [r7, #4]
 8002110:	689b      	ldr	r3, [r3, #8]
 8002112:	2b00      	cmp	r3, #0
 8002114:	d110      	bne.n	8002138 <osMessageQueueNew+0xac>
 8002116:	687b      	ldr	r3, [r7, #4]
 8002118:	68db      	ldr	r3, [r3, #12]
 800211a:	2b00      	cmp	r3, #0
 800211c:	d10c      	bne.n	8002138 <osMessageQueueNew+0xac>
 800211e:	687b      	ldr	r3, [r7, #4]
 8002120:	691b      	ldr	r3, [r3, #16]
 8002122:	2b00      	cmp	r3, #0
 8002124:	d108      	bne.n	8002138 <osMessageQueueNew+0xac>
 8002126:	687b      	ldr	r3, [r7, #4]
 8002128:	695b      	ldr	r3, [r3, #20]
 800212a:	2b00      	cmp	r3, #0
 800212c:	d104      	bne.n	8002138 <osMessageQueueNew+0xac>
 800212e:	2300      	movs	r3, #0
 8002130:	623b      	str	r3, [r7, #32]
 8002132:	e001      	b.n	8002138 <osMessageQueueNew+0xac>
 8002134:	2300      	movs	r3, #0
 8002136:	623b      	str	r3, [r7, #32]
 8002138:	6a3b      	ldr	r3, [r7, #32]
 800213a:	2b01      	cmp	r3, #1
 800213c:	d10c      	bne.n	8002158 <osMessageQueueNew+0xcc>
 800213e:	687b      	ldr	r3, [r7, #4]
 8002140:	691a      	ldr	r2, [r3, #16]
 8002142:	687b      	ldr	r3, [r7, #4]
 8002144:	6899      	ldr	r1, [r3, #8]
 8002146:	2300      	movs	r3, #0
 8002148:	9300      	str	r3, [sp, #0]
 800214a:	460b      	mov	r3, r1
 800214c:	68b9      	ldr	r1, [r7, #8]
 800214e:	68f8      	ldr	r0, [r7, #12]
 8002150:	f000 f96c 	bl	800242c <xQueueGenericCreateStatic>
 8002154:	6278      	str	r0, [r7, #36]	; 0x24
 8002156:	e008      	b.n	800216a <osMessageQueueNew+0xde>
 8002158:	6a3b      	ldr	r3, [r7, #32]
 800215a:	2b00      	cmp	r3, #0
 800215c:	d105      	bne.n	800216a <osMessageQueueNew+0xde>
 800215e:	2200      	movs	r2, #0
 8002160:	68b9      	ldr	r1, [r7, #8]
 8002162:	68f8      	ldr	r0, [r7, #12]
 8002164:	f000 f9d4 	bl	8002510 <xQueueGenericCreate>
 8002168:	6278      	str	r0, [r7, #36]	; 0x24
 800216a:	6a7b      	ldr	r3, [r7, #36]	; 0x24
 800216c:	2b00      	cmp	r3, #0
 800216e:	d00c      	beq.n	800218a <osMessageQueueNew+0xfe>
 8002170:	687b      	ldr	r3, [r7, #4]
 8002172:	2b00      	cmp	r3, #0
 8002174:	d003      	beq.n	800217e <osMessageQueueNew+0xf2>
 8002176:	687b      	ldr	r3, [r7, #4]
 8002178:	681b      	ldr	r3, [r3, #0]
 800217a:	61fb      	str	r3, [r7, #28]
 800217c:	e001      	b.n	8002182 <osMessageQueueNew+0xf6>
 800217e:	2300      	movs	r3, #0
 8002180:	61fb      	str	r3, [r7, #28]
 8002182:	69f9      	ldr	r1, [r7, #28]
 8002184:	6a78      	ldr	r0, [r7, #36]	; 0x24
 8002186:	f000 fdbb 	bl	8002d00 <vQueueAddToRegistry>
 800218a:	6a7b      	ldr	r3, [r7, #36]	; 0x24
 800218c:	4618      	mov	r0, r3
 800218e:	3728      	adds	r7, #40	; 0x28
 8002190:	46bd      	mov	sp, r7
 8002192:	bd80      	pop	{r7, pc}
 8002194:	200000a8 	.word	0x200000a8

08002198 <vApplicationGetIdleTaskMemory>:
 8002198:	b480      	push	{r7}
 800219a:	b085      	sub	sp, #20
 800219c:	af00      	add	r7, sp, #0
 800219e:	60f8      	str	r0, [r7, #12]
 80021a0:	60b9      	str	r1, [r7, #8]
 80021a2:	607a      	str	r2, [r7, #4]
 80021a4:	68fb      	ldr	r3, [r7, #12]
 80021a6:	4a06      	ldr	r2, [pc, #24]	; (80021c0 <vApplicationGetIdleTaskMemory+0x28>)
 80021a8:	601a      	str	r2, [r3, #0]
 80021aa:	68bb      	ldr	r3, [r7, #8]
 80021ac:	4a05      	ldr	r2, [pc, #20]	; (80021c4 <vApplicationGetIdleTaskMemory+0x2c>)
 80021ae:	601a      	str	r2, [r3, #0]
 80021b0:	687b      	ldr	r3, [r7, #4]
 80021b2:	2240      	movs	r2, #64	; 0x40
 80021b4:	601a      	str	r2, [r3, #0]
 80021b6:	bf00      	nop
 80021b8:	3714      	adds	r7, #20
 80021ba:	46bd      	mov	sp, r7
 80021bc:	bc80      	pop	{r7}
 80021be:	4770      	bx	lr
 80021c0:	200000ac 	.word	0x200000ac
 80021c4:	20000108 	.word	0x20000108

080021c8 <vApplicationGetTimerTaskMemory>:
 80021c8:	b480      	push	{r7}
 80021ca:	b085      	sub	sp, #20
 80021cc:	af00      	add	r7, sp, #0
 80021ce:	60f8      	str	r0, [r7, #12]
 80021d0:	60b9      	str	r1, [r7, #8]
 80021d2:	607a      	str	r2, [r7, #4]
 80021d4:	68fb      	ldr	r3, [r7, #12]
 80021d6:	4a07      	ldr	r2, [pc, #28]	; (80021f4 <vApplicationGetTimerTaskMemory+0x2c>)
 80021d8:	601a      	str	r2, [r3, #0]
 80021da:	68bb      	ldr	r3, [r7, #8]
 80021dc:	4a06      	ldr	r2, [pc, #24]	; (80021f8 <vApplicationGetTimerTaskMemory+0x30>)
 80021de:	601a      	str	r2, [r3, #0]
 80021e0:	687b      	ldr	r3, [r7, #4]
 80021e2:	f44f 7280 	mov.w	r2, #256	; 0x100
 80021e6:	601a      	str	r2, [r3, #0]
 80021e8:	bf00      	nop
 80021ea:	3714      	adds	r7, #20
 80021ec:	46bd      	mov	sp, r7
 80021ee:	bc80      	pop	{r7}
 80021f0:	4770      	bx	lr
 80021f2:	bf00      	nop
 80021f4:	20000208 	.word	0x20000208
 80021f8:	20000264 	.word	0x20000264

080021fc <vListInitialise>:
 80021fc:	b480      	push	{r7}
 80021fe:	b083      	sub	sp, #12
 8002200:	af00      	add	r7, sp, #0
 8002202:	6078      	str	r0, [r7, #4]
 8002204:	687b      	ldr	r3, [r7, #4]
 8002206:	f103 0208 	add.w	r2, r3, #8
 800220a:	687b      	ldr	r3, [r7, #4]
 800220c:	605a      	str	r2, [r3, #4]
 800220e:	687b      	ldr	r3, [r7, #4]
 8002210:	f04f 32ff 	mov.w	r2, #4294967295
 8002214:	609a      	str	r2, [r3, #8]
 8002216:	687b      	ldr	r3, [r7, #4]
 8002218:	f103 0208 	add.w	r2, r3, #8
 800221c:	687b      	ldr	r3, [r7, #4]
 800221e:	60da      	str	r2, [r3, #12]
 8002220:	687b      	ldr	r3, [r7, #4]
 8002222:	f103 0208 	add.w	r2, r3, #8
 8002226:	687b      	ldr	r3, [r7, #4]
 8002228:	611a      	str	r2, [r3, #16]
 800222a:	687b      	ldr	r3, [r7, #4]
 800222c:	2200      	movs	r2, #0
 800222e:	601a      	str	r2, [r3, #0]
 8002230:	bf00      	nop
 8002232:	370c      	adds	r7, #12
 8002234:	46bd      	mov	sp, r7
 8002236:	bc80      	pop	{r7}
 8002238:	4770      	bx	lr

0800223a <vListInitialiseItem>:
 800223a:	b480      	push	{r7}
 800223c:	b083      	sub	sp, #12
 800223e:	af00      	add	r7, sp, #0
 8002240:	6078      	str	r0, [r7, #4]
 8002242:	687b      	ldr	r3, [r7, #4]
 8002244:	2200      	movs	r2, #0
 8002246:	611a      	str	r2, [r3, #16]
 8002248:	bf00      	nop
 800224a:	370c      	adds	r7, #12
 800224c:	46bd      	mov	sp, r7
 800224e:	bc80      	pop	{r7}
 8002250:	4770      	bx	lr

08002252 <vListInsertEnd>:
 8002252:	b480      	push	{r7}
 8002254:	b085      	sub	sp, #20
 8002256:	af00      	add	r7, sp, #0
 8002258:	6078      	str	r0, [r7, #4]
 800225a:	6039      	str	r1, [r7, #0]
 800225c:	687b      	ldr	r3, [r7, #4]
 800225e:	685b      	ldr	r3, [r3, #4]
 8002260:	60fb      	str	r3, [r7, #12]
 8002262:	683b      	ldr	r3, [r7, #0]
 8002264:	68fa      	ldr	r2, [r7, #12]
 8002266:	605a      	str	r2, [r3, #4]
 8002268:	68fb      	ldr	r3, [r7, #12]
 800226a:	689a      	ldr	r2, [r3, #8]
 800226c:	683b      	ldr	r3, [r7, #0]
 800226e:	609a      	str	r2, [r3, #8]
 8002270:	68fb      	ldr	r3, [r7, #12]
 8002272:	689b      	ldr	r3, [r3, #8]
 8002274:	683a      	ldr	r2, [r7, #0]
 8002276:	605a      	str	r2, [r3, #4]
 8002278:	68fb      	ldr	r3, [r7, #12]
 800227a:	683a      	ldr	r2, [r7, #0]
 800227c:	609a      	str	r2, [r3, #8]
 800227e:	683b      	ldr	r3, [r7, #0]
 8002280:	687a      	ldr	r2, [r7, #4]
 8002282:	611a      	str	r2, [r3, #16]
 8002284:	687b      	ldr	r3, [r7, #4]
 8002286:	681b      	ldr	r3, [r3, #0]
 8002288:	1c5a      	adds	r2, r3, #1
 800228a:	687b      	ldr	r3, [r7, #4]
 800228c:	601a      	str	r2, [r3, #0]
 800228e:	bf00      	nop
 8002290:	3714      	adds	r7, #20
 8002292:	46bd      	mov	sp, r7
 8002294:	bc80      	pop	{r7}
 8002296:	4770      	bx	lr

08002298 <vListInsert>:
 8002298:	b480      	push	{r7}
 800229a:	b085      	sub	sp, #20
 800229c:	af00      	add	r7, sp, #0
 800229e:	6078      	str	r0, [r7, #4]
 80022a0:	6039      	str	r1, [r7, #0]
 80022a2:	683b      	ldr	r3, [r7, #0]
 80022a4:	681b      	ldr	r3, [r3, #0]
 80022a6:	60bb      	str	r3, [r7, #8]
 80022a8:	68bb      	ldr	r3, [r7, #8]
 80022aa:	f1b3 3fff 	cmp.w	r3, #4294967295
 80022ae:	d103      	bne.n	80022b8 <vListInsert+0x20>
 80022b0:	687b      	ldr	r3, [r7, #4]
 80022b2:	691b      	ldr	r3, [r3, #16]
 80022b4:	60fb      	str	r3, [r7, #12]
 80022b6:	e00c      	b.n	80022d2 <vListInsert+0x3a>
 80022b8:	687b      	ldr	r3, [r7, #4]
 80022ba:	3308      	adds	r3, #8
 80022bc:	60fb      	str	r3, [r7, #12]
 80022be:	e002      	b.n	80022c6 <vListInsert+0x2e>
 80022c0:	68fb      	ldr	r3, [r7, #12]
 80022c2:	685b      	ldr	r3, [r3, #4]
 80022c4:	60fb      	str	r3, [r7, #12]
 80022c6:	68fb      	ldr	r3, [r7, #12]
 80022c8:	685b      	ldr	r3, [r3, #4]
 80022ca:	681b      	ldr	r3, [r3, #0]
 80022cc:	68ba      	ldr	r2, [r7, #8]
 80022ce:	429a      	cmp	r2, r3
 80022d0:	d2f6      	bcs.n	80022c0 <vListInsert+0x28>
 80022d2:	68fb      	ldr	r3, [r7, #12]
 80022d4:	685a      	ldr	r2, [r3, #4]
 80022d6:	683b      	ldr	r3, [r7, #0]
 80022d8:	605a      	str	r2, [r3, #4]
 80022da:	683b      	ldr	r3, [r7, #0]
 80022dc:	685b      	ldr	r3, [r3, #4]
 80022de:	683a      	ldr	r2, [r7, #0]
 80022e0:	609a      	str	r2, [r3, #8]
 80022e2:	683b      	ldr	r3, [r7, #0]
 80022e4:	68fa      	ldr	r2, [r7, #12]
 80022e6:	609a      	str	r2, [r3, #8]
 80022e8:	68fb      	ldr	r3, [r7, #12]
 80022ea:	683a      	ldr	r2, [r7, #0]
 80022ec:	605a      	str	r2, [r3, #4]
 80022ee:	683b      	ldr	r3, [r7, #0]
 80022f0:	687a      	ldr	r2, [r7, #4]
 80022f2:	611a      	str	r2, [r3, #16]
 80022f4:	687b      	ldr	r3, [r7, #4]
 80022f6:	681b      	ldr	r3, [r3, #0]
 80022f8:	1c5a      	adds	r2, r3, #1
 80022fa:	687b      	ldr	r3, [r7, #4]
 80022fc:	601a      	str	r2, [r3, #0]
 80022fe:	bf00      	nop
 8002300:	3714      	adds	r7, #20
 8002302:	46bd      	mov	sp, r7
 8002304:	bc80      	pop	{r7}
 8002306:	4770      	bx	lr

08002308 <uxListRemove>:
 8002308:	b480      	push	{r7}
 800230a:	b085      	sub	sp, #20
 800230c:	af00      	add	r7, sp, #0
 800230e:	6078      	str	r0, [r7, #4]
 8002310:	687b      	ldr	r3, [r7, #4]
 8002312:	691b      	ldr	r3, [r3, #16]
 8002314:	60fb      	str	r3, [r7, #12]
 8002316:	687b      	ldr	r3, [r7, #4]
 8002318:	685b      	ldr	r3, [r3, #4]
 800231a:	687a      	ldr	r2, [r7, #4]
 800231c:	6892      	ldr	r2, [r2, #8]
 800231e:	609a      	str	r2, [r3, #8]
 8002320:	687b      	ldr	r3, [r7, #4]
 8002322:	689b      	ldr	r3, [r3, #8]
 8002324:	687a      	ldr	r2, [r7, #4]
 8002326:	6852      	ldr	r2, [r2, #4]
 8002328:	605a      	str	r2, [r3, #4]
 800232a:	68fb      	ldr	r3, [r7, #12]
 800232c:	685b      	ldr	r3, [r3, #4]
 800232e:	687a      	ldr	r2, [r7, #4]
 8002330:	429a      	cmp	r2, r3
 8002332:	d103      	bne.n	800233c <uxListRemove+0x34>
 8002334:	687b      	ldr	r3, [r7, #4]
 8002336:	689a      	ldr	r2, [r3, #8]
 8002338:	68fb      	ldr	r3, [r7, #12]
 800233a:	605a      	str	r2, [r3, #4]
 800233c:	687b      	ldr	r3, [r7, #4]
 800233e:	2200      	movs	r2, #0
 8002340:	611a      	str	r2, [r3, #16]
 8002342:	68fb      	ldr	r3, [r7, #12]
 8002344:	681b      	ldr	r3, [r3, #0]
 8002346:	1e5a      	subs	r2, r3, #1
 8002348:	68fb      	ldr	r3, [r7, #12]
 800234a:	601a      	str	r2, [r3, #0]
 800234c:	68fb      	ldr	r3, [r7, #12]
 800234e:	681b      	ldr	r3, [r3, #0]
 8002350:	4618      	mov	r0, r3
 8002352:	3714      	adds	r7, #20
 8002354:	46bd      	mov	sp, r7
 8002356:	bc80      	pop	{r7}
 8002358:	4770      	bx	lr
	...

0800235c <xQueueGenericReset>:
 800235c:	b580      	push	{r7, lr}
 800235e:	b084      	sub	sp, #16
 8002360:	af00      	add	r7, sp, #0
 8002362:	6078      	str	r0, [r7, #4]
 8002364:	6039      	str	r1, [r7, #0]
 8002366:	687b      	ldr	r3, [r7, #4]
 8002368:	60fb      	str	r3, [r7, #12]
 800236a:	68fb      	ldr	r3, [r7, #12]
 800236c:	2b00      	cmp	r3, #0
 800236e:	d109      	bne.n	8002384 <xQueueGenericReset+0x28>
 8002370:	f04f 0350 	mov.w	r3, #80	; 0x50
 8002374:	f383 8811 	msr	BASEPRI, r3
 8002378:	f3bf 8f6f 	isb	sy
 800237c:	f3bf 8f4f 	dsb	sy
 8002380:	60bb      	str	r3, [r7, #8]
 8002382:	e7fe      	b.n	8002382 <xQueueGenericReset+0x26>
 8002384:	f002 f810 	bl	80043a8 <vPortEnterCritical>
 8002388:	68fb      	ldr	r3, [r7, #12]
 800238a:	681a      	ldr	r2, [r3, #0]
 800238c:	68fb      	ldr	r3, [r7, #12]
 800238e:	6bdb      	ldr	r3, [r3, #60]	; 0x3c
 8002390:	68f9      	ldr	r1, [r7, #12]
 8002392:	6c09      	ldr	r1, [r1, #64]	; 0x40
 8002394:	fb01 f303 	mul.w	r3, r1, r3
 8002398:	441a      	add	r2, r3
 800239a:	68fb      	ldr	r3, [r7, #12]
 800239c:	605a      	str	r2, [r3, #4]
 800239e:	68fb      	ldr	r3, [r7, #12]
 80023a0:	2200      	movs	r2, #0
 80023a2:	639a      	str	r2, [r3, #56]	; 0x38
 80023a4:	68fb      	ldr	r3, [r7, #12]
 80023a6:	681a      	ldr	r2, [r3, #0]
 80023a8:	68fb      	ldr	r3, [r7, #12]
 80023aa:	609a      	str	r2, [r3, #8]
 80023ac:	68fb      	ldr	r3, [r7, #12]
 80023ae:	681a      	ldr	r2, [r3, #0]
 80023b0:	68fb      	ldr	r3, [r7, #12]
 80023b2:	6bdb      	ldr	r3, [r3, #60]	; 0x3c
 80023b4:	3b01      	subs	r3, #1
 80023b6:	68f9      	ldr	r1, [r7, #12]
 80023b8:	6c09      	ldr	r1, [r1, #64]	; 0x40
 80023ba:	fb01 f303 	mul.w	r3, r1, r3
 80023be:	441a      	add	r2, r3
 80023c0:	68fb      	ldr	r3, [r7, #12]
 80023c2:	60da      	str	r2, [r3, #12]
 80023c4:	68fb      	ldr	r3, [r7, #12]
 80023c6:	22ff      	movs	r2, #255	; 0xff
 80023c8:	f883 2044 	strb.w	r2, [r3, #68]	; 0x44
 80023cc:	68fb      	ldr	r3, [r7, #12]
 80023ce:	22ff      	movs	r2, #255	; 0xff
 80023d0:	f883 2045 	strb.w	r2, [r3, #69]	; 0x45
 80023d4:	683b      	ldr	r3, [r7, #0]
 80023d6:	2b00      	cmp	r3, #0
 80023d8:	d114      	bne.n	8002404 <xQueueGenericReset+0xa8>
 80023da:	68fb      	ldr	r3, [r7, #12]
 80023dc:	691b      	ldr	r3, [r3, #16]
 80023de:	2b00      	cmp	r3, #0
 80023e0:	d01a      	beq.n	8002418 <xQueueGenericReset+0xbc>
 80023e2:	68fb      	ldr	r3, [r7, #12]
 80023e4:	3310      	adds	r3, #16
 80023e6:	4618      	mov	r0, r3
 80023e8:	f001 f954 	bl	8003694 <xTaskRemoveFromEventList>
 80023ec:	4603      	mov	r3, r0
 80023ee:	2b00      	cmp	r3, #0
 80023f0:	d012      	beq.n	8002418 <xQueueGenericReset+0xbc>
 80023f2:	4b0d      	ldr	r3, [pc, #52]	; (8002428 <xQueueGenericReset+0xcc>)
 80023f4:	f04f 5280 	mov.w	r2, #268435456	; 0x10000000
 80023f8:	601a      	str	r2, [r3, #0]
 80023fa:	f3bf 8f4f 	dsb	sy
 80023fe:	f3bf 8f6f 	isb	sy
 8002402:	e009      	b.n	8002418 <xQueueGenericReset+0xbc>
 8002404:	68fb      	ldr	r3, [r7, #12]
 8002406:	3310      	adds	r3, #16
 8002408:	4618      	mov	r0, r3
 800240a:	f7ff fef7 	bl	80021fc <vListInitialise>
 800240e:	68fb      	ldr	r3, [r7, #12]
 8002410:	3324      	adds	r3, #36	; 0x24
 8002412:	4618      	mov	r0, r3
 8002414:	f7ff fef2 	bl	80021fc <vListInitialise>
 8002418:	f001 fff4 	bl	8004404 <vPortExitCritical>
 800241c:	2301      	movs	r3, #1
 800241e:	4618      	mov	r0, r3
 8002420:	3710      	adds	r7, #16
 8002422:	46bd      	mov	sp, r7
 8002424:	bd80      	pop	{r7, pc}
 8002426:	bf00      	nop
 8002428:	e000ed04 	.word	0xe000ed04

0800242c <xQueueGenericCreateStatic>:
 800242c:	b580      	push	{r7, lr}
 800242e:	b08e      	sub	sp, #56	; 0x38
 8002430:	af02      	add	r7, sp, #8
 8002432:	60f8      	str	r0, [r7, #12]
 8002434:	60b9      	str	r1, [r7, #8]
 8002436:	607a      	str	r2, [r7, #4]
 8002438:	603b      	str	r3, [r7, #0]
 800243a:	68fb      	ldr	r3, [r7, #12]
 800243c:	2b00      	cmp	r3, #0
 800243e:	d109      	bne.n	8002454 <xQueueGenericCreateStatic+0x28>
 8002440:	f04f 0350 	mov.w	r3, #80	; 0x50
 8002444:	f383 8811 	msr	BASEPRI, r3
 8002448:	f3bf 8f6f 	isb	sy
 800244c:	f3bf 8f4f 	dsb	sy
 8002450:	62bb      	str	r3, [r7, #40]	; 0x28
 8002452:	e7fe      	b.n	8002452 <xQueueGenericCreateStatic+0x26>
 8002454:	683b      	ldr	r3, [r7, #0]
 8002456:	2b00      	cmp	r3, #0
 8002458:	d109      	bne.n	800246e <xQueueGenericCreateStatic+0x42>
 800245a:	f04f 0350 	mov.w	r3, #80	; 0x50
 800245e:	f383 8811 	msr	BASEPRI, r3
 8002462:	f3bf 8f6f 	isb	sy
 8002466:	f3bf 8f4f 	dsb	sy
 800246a:	627b      	str	r3, [r7, #36]	; 0x24
 800246c:	e7fe      	b.n	800246c <xQueueGenericCreateStatic+0x40>
 800246e:	687b      	ldr	r3, [r7, #4]
 8002470:	2b00      	cmp	r3, #0
 8002472:	d002      	beq.n	800247a <xQueueGenericCreateStatic+0x4e>
 8002474:	68bb      	ldr	r3, [r7, #8]
 8002476:	2b00      	cmp	r3, #0
 8002478:	d001      	beq.n	800247e <xQueueGenericCreateStatic+0x52>
 800247a:	2301      	movs	r3, #1
 800247c:	e000      	b.n	8002480 <xQueueGenericCreateStatic+0x54>
 800247e:	2300      	movs	r3, #0
 8002480:	2b00      	cmp	r3, #0
 8002482:	d109      	bne.n	8002498 <xQueueGenericCreateStatic+0x6c>
 8002484:	f04f 0350 	mov.w	r3, #80	; 0x50
 8002488:	f383 8811 	msr	BASEPRI, r3
 800248c:	f3bf 8f6f 	isb	sy
 8002490:	f3bf 8f4f 	dsb	sy
 8002494:	623b      	str	r3, [r7, #32]
 8002496:	e7fe      	b.n	8002496 <xQueueGenericCreateStatic+0x6a>
 8002498:	687b      	ldr	r3, [r7, #4]
 800249a:	2b00      	cmp	r3, #0
 800249c:	d102      	bne.n	80024a4 <xQueueGenericCreateStatic+0x78>
 800249e:	68bb      	ldr	r3, [r7, #8]
 80024a0:	2b00      	cmp	r3, #0
 80024a2:	d101      	bne.n	80024a8 <xQueueGenericCreateStatic+0x7c>
 80024a4:	2301      	movs	r3, #1
 80024a6:	e000      	b.n	80024aa <xQueueGenericCreateStatic+0x7e>
 80024a8:	2300      	movs	r3, #0
 80024aa:	2b00      	cmp	r3, #0
 80024ac:	d109      	bne.n	80024c2 <xQueueGenericCreateStatic+0x96>
 80024ae:	f04f 0350 	mov.w	r3, #80	; 0x50
 80024b2:	f383 8811 	msr	BASEPRI, r3
 80024b6:	f3bf 8f6f 	isb	sy
 80024ba:	f3bf 8f4f 	dsb	sy
 80024be:	61fb      	str	r3, [r7, #28]
 80024c0:	e7fe      	b.n	80024c0 <xQueueGenericCreateStatic+0x94>
 80024c2:	2350      	movs	r3, #80	; 0x50
 80024c4:	617b      	str	r3, [r7, #20]
 80024c6:	697b      	ldr	r3, [r7, #20]
 80024c8:	2b50      	cmp	r3, #80	; 0x50
 80024ca:	d009      	beq.n	80024e0 <xQueueGenericCreateStatic+0xb4>
 80024cc:	f04f 0350 	mov.w	r3, #80	; 0x50
 80024d0:	f383 8811 	msr	BASEPRI, r3
 80024d4:	f3bf 8f6f 	isb	sy
 80024d8:	f3bf 8f4f 	dsb	sy
 80024dc:	61bb      	str	r3, [r7, #24]
 80024de:	e7fe      	b.n	80024de <xQueueGenericCreateStatic+0xb2>
 80024e0:	683b      	ldr	r3, [r7, #0]
 80024e2:	62fb      	str	r3, [r7, #44]	; 0x2c
 80024e4:	6afb      	ldr	r3, [r7, #44]	; 0x2c
 80024e6:	2b00      	cmp	r3, #0
 80024e8:	d00d      	beq.n	8002506 <xQueueGenericCreateStatic+0xda>
 80024ea:	6afb      	ldr	r3, [r7, #44]	; 0x2c
 80024ec:	2201      	movs	r2, #1
 80024ee:	f883 2046 	strb.w	r2, [r3, #70]	; 0x46
 80024f2:	f897 2038 	ldrb.w	r2, [r7, #56]	; 0x38
 80024f6:	6afb      	ldr	r3, [r7, #44]	; 0x2c
 80024f8:	9300      	str	r3, [sp, #0]
 80024fa:	4613      	mov	r3, r2
 80024fc:	687a      	ldr	r2, [r7, #4]
 80024fe:	68b9      	ldr	r1, [r7, #8]
 8002500:	68f8      	ldr	r0, [r7, #12]
 8002502:	f000 f842 	bl	800258a <prvInitialiseNewQueue>
 8002506:	6afb      	ldr	r3, [r7, #44]	; 0x2c
 8002508:	4618      	mov	r0, r3
 800250a:	3730      	adds	r7, #48	; 0x30
 800250c:	46bd      	mov	sp, r7
 800250e:	bd80      	pop	{r7, pc}

08002510 <xQueueGenericCreate>:
 8002510:	b580      	push	{r7, lr}
 8002512:	b08a      	sub	sp, #40	; 0x28
 8002514:	af02      	add	r7, sp, #8
 8002516:	60f8      	str	r0, [r7, #12]
 8002518:	60b9      	str	r1, [r7, #8]
 800251a:	4613      	mov	r3, r2
 800251c:	71fb      	strb	r3, [r7, #7]
 800251e:	68fb      	ldr	r3, [r7, #12]
 8002520:	2b00      	cmp	r3, #0
 8002522:	d109      	bne.n	8002538 <xQueueGenericCreate+0x28>
 8002524:	f04f 0350 	mov.w	r3, #80	; 0x50
 8002528:	f383 8811 	msr	BASEPRI, r3
 800252c:	f3bf 8f6f 	isb	sy
 8002530:	f3bf 8f4f 	dsb	sy
 8002534:	613b      	str	r3, [r7, #16]
 8002536:	e7fe      	b.n	8002536 <xQueueGenericCreate+0x26>
 8002538:	68bb      	ldr	r3, [r7, #8]
 800253a:	2b00      	cmp	r3, #0
 800253c:	d102      	bne.n	8002544 <xQueueGenericCreate+0x34>
 800253e:	2300      	movs	r3, #0
 8002540:	61fb      	str	r3, [r7, #28]
 8002542:	e004      	b.n	800254e <xQueueGenericCreate+0x3e>
 8002544:	68fb      	ldr	r3, [r7, #12]
 8002546:	68ba      	ldr	r2, [r7, #8]
 8002548:	fb02 f303 	mul.w	r3, r2, r3
 800254c:	61fb      	str	r3, [r7, #28]
 800254e:	69fb      	ldr	r3, [r7, #28]
 8002550:	3350      	adds	r3, #80	; 0x50
 8002552:	4618      	mov	r0, r3
 8002554:	f002 f81e 	bl	8004594 <pvPortMalloc>
 8002558:	61b8      	str	r0, [r7, #24]
 800255a:	69bb      	ldr	r3, [r7, #24]
 800255c:	2b00      	cmp	r3, #0
 800255e:	d00f      	beq.n	8002580 <xQueueGenericCreate+0x70>
 8002560:	69bb      	ldr	r3, [r7, #24]
 8002562:	3350      	adds	r3, #80	; 0x50
 8002564:	617b      	str	r3, [r7, #20]
 8002566:	69bb      	ldr	r3, [r7, #24]
 8002568:	2200      	movs	r2, #0
 800256a:	f883 2046 	strb.w	r2, [r3, #70]	; 0x46
 800256e:	79fa      	ldrb	r2, [r7, #7]
 8002570:	69bb      	ldr	r3, [r7, #24]
 8002572:	9300      	str	r3, [sp, #0]
 8002574:	4613      	mov	r3, r2
 8002576:	697a      	ldr	r2, [r7, #20]
 8002578:	68b9      	ldr	r1, [r7, #8]
 800257a:	68f8      	ldr	r0, [r7, #12]
 800257c:	f000 f805 	bl	800258a <prvInitialiseNewQueue>
 8002580:	69bb      	ldr	r3, [r7, #24]
 8002582:	4618      	mov	r0, r3
 8002584:	3720      	adds	r7, #32
 8002586:	46bd      	mov	sp, r7
 8002588:	bd80      	pop	{r7, pc}

0800258a <prvInitialiseNewQueue>:
 800258a:	b580      	push	{r7, lr}
 800258c:	b084      	sub	sp, #16
 800258e:	af00      	add	r7, sp, #0
 8002590:	60f8      	str	r0, [r7, #12]
 8002592:	60b9      	str	r1, [r7, #8]
 8002594:	607a      	str	r2, [r7, #4]
 8002596:	70fb      	strb	r3, [r7, #3]
 8002598:	68bb      	ldr	r3, [r7, #8]
 800259a:	2b00      	cmp	r3, #0
 800259c:	d103      	bne.n	80025a6 <prvInitialiseNewQueue+0x1c>
 800259e:	69bb      	ldr	r3, [r7, #24]
 80025a0:	69ba      	ldr	r2, [r7, #24]
 80025a2:	601a      	str	r2, [r3, #0]
 80025a4:	e002      	b.n	80025ac <prvInitialiseNewQueue+0x22>
 80025a6:	69bb      	ldr	r3, [r7, #24]
 80025a8:	687a      	ldr	r2, [r7, #4]
 80025aa:	601a      	str	r2, [r3, #0]
 80025ac:	69bb      	ldr	r3, [r7, #24]
 80025ae:	68fa      	ldr	r2, [r7, #12]
 80025b0:	63da      	str	r2, [r3, #60]	; 0x3c
 80025b2:	69bb      	ldr	r3, [r7, #24]
 80025b4:	68ba      	ldr	r2, [r7, #8]
 80025b6:	641a      	str	r2, [r3, #64]	; 0x40
 80025b8:	2101      	movs	r1, #1
 80025ba:	69b8      	ldr	r0, [r7, #24]
 80025bc:	f7ff fece 	bl	800235c <xQueueGenericReset>
 80025c0:	69bb      	ldr	r3, [r7, #24]
 80025c2:	78fa      	ldrb	r2, [r7, #3]
 80025c4:	f883 204c 	strb.w	r2, [r3, #76]	; 0x4c
 80025c8:	bf00      	nop
 80025ca:	3710      	adds	r7, #16
 80025cc:	46bd      	mov	sp, r7
 80025ce:	bd80      	pop	{r7, pc}

080025d0 <xQueueGenericSend>:
 80025d0:	b580      	push	{r7, lr}
 80025d2:	b08e      	sub	sp, #56	; 0x38
 80025d4:	af00      	add	r7, sp, #0
 80025d6:	60f8      	str	r0, [r7, #12]
 80025d8:	60b9      	str	r1, [r7, #8]
 80025da:	607a      	str	r2, [r7, #4]
 80025dc:	603b      	str	r3, [r7, #0]
 80025de:	2300      	movs	r3, #0
 80025e0:	637b      	str	r3, [r7, #52]	; 0x34
 80025e2:	68fb      	ldr	r3, [r7, #12]
 80025e4:	633b      	str	r3, [r7, #48]	; 0x30
 80025e6:	6b3b      	ldr	r3, [r7, #48]	; 0x30
 80025e8:	2b00      	cmp	r3, #0
 80025ea:	d109      	bne.n	8002600 <xQueueGenericSend+0x30>
 80025ec:	f04f 0350 	mov.w	r3, #80	; 0x50
 80025f0:	f383 8811 	msr	BASEPRI, r3
 80025f4:	f3bf 8f6f 	isb	sy
 80025f8:	f3bf 8f4f 	dsb	sy
 80025fc:	62bb      	str	r3, [r7, #40]	; 0x28
 80025fe:	e7fe      	b.n	80025fe <xQueueGenericSend+0x2e>
 8002600:	68bb      	ldr	r3, [r7, #8]
 8002602:	2b00      	cmp	r3, #0
 8002604:	d103      	bne.n	800260e <xQueueGenericSend+0x3e>
 8002606:	6b3b      	ldr	r3, [r7, #48]	; 0x30
 8002608:	6c1b      	ldr	r3, [r3, #64]	; 0x40
 800260a:	2b00      	cmp	r3, #0
 800260c:	d101      	bne.n	8002612 <xQueueGenericSend+0x42>
 800260e:	2301      	movs	r3, #1
 8002610:	e000      	b.n	8002614 <xQueueGenericSend+0x44>
 8002612:	2300      	movs	r3, #0
 8002614:	2b00      	cmp	r3, #0
 8002616:	d109      	bne.n	800262c <xQueueGenericSend+0x5c>
 8002618:	f04f 0350 	mov.w	r3, #80	; 0x50
 800261c:	f383 8811 	msr	BASEPRI, r3
 8002620:	f3bf 8f6f 	isb	sy
 8002624:	f3bf 8f4f 	dsb	sy
 8002628:	627b      	str	r3, [r7, #36]	; 0x24
 800262a:	e7fe      	b.n	800262a <xQueueGenericSend+0x5a>
 800262c:	683b      	ldr	r3, [r7, #0]
 800262e:	2b02      	cmp	r3, #2
 8002630:	d103      	bne.n	800263a <xQueueGenericSend+0x6a>
 8002632:	6b3b      	ldr	r3, [r7, #48]	; 0x30
 8002634:	6bdb      	ldr	r3, [r3, #60]	; 0x3c
 8002636:	2b01      	cmp	r3, #1
 8002638:	d101      	bne.n	800263e <xQueueGenericSend+0x6e>
 800263a:	2301      	movs	r3, #1
 800263c:	e000      	b.n	8002640 <xQueueGenericSend+0x70>
 800263e:	2300      	movs	r3, #0
 8002640:	2b00      	cmp	r3, #0
 8002642:	d109      	bne.n	8002658 <xQueueGenericSend+0x88>
 8002644:	f04f 0350 	mov.w	r3, #80	; 0x50
 8002648:	f383 8811 	msr	BASEPRI, r3
 800264c:	f3bf 8f6f 	isb	sy
 8002650:	f3bf 8f4f 	dsb	sy
 8002654:	623b      	str	r3, [r7, #32]
 8002656:	e7fe      	b.n	8002656 <xQueueGenericSend+0x86>
 8002658:	f001 f9d6 	bl	8003a08 <xTaskGetSchedulerState>
 800265c:	4603      	mov	r3, r0
 800265e:	2b00      	cmp	r3, #0
 8002660:	d102      	bne.n	8002668 <xQueueGenericSend+0x98>
 8002662:	687b      	ldr	r3, [r7, #4]
 8002664:	2b00      	cmp	r3, #0
 8002666:	d101      	bne.n	800266c <xQueueGenericSend+0x9c>
 8002668:	2301      	movs	r3, #1
 800266a:	e000      	b.n	800266e <xQueueGenericSend+0x9e>
 800266c:	2300      	movs	r3, #0
 800266e:	2b00      	cmp	r3, #0
 8002670:	d109      	bne.n	8002686 <xQueueGenericSend+0xb6>
 8002672:	f04f 0350 	mov.w	r3, #80	; 0x50
 8002676:	f383 8811 	msr	BASEPRI, r3
 800267a:	f3bf 8f6f 	isb	sy
 800267e:	f3bf 8f4f 	dsb	sy
 8002682:	61fb      	str	r3, [r7, #28]
 8002684:	e7fe      	b.n	8002684 <xQueueGenericSend+0xb4>
 8002686:	f001 fe8f 	bl	80043a8 <vPortEnterCritical>
 800268a:	6b3b      	ldr	r3, [r7, #48]	; 0x30
 800268c:	6b9a      	ldr	r2, [r3, #56]	; 0x38
 800268e:	6b3b      	ldr	r3, [r7, #48]	; 0x30
 8002690:	6bdb      	ldr	r3, [r3, #60]	; 0x3c
 8002692:	429a      	cmp	r2, r3
 8002694:	d302      	bcc.n	800269c <xQueueGenericSend+0xcc>
 8002696:	683b      	ldr	r3, [r7, #0]
 8002698:	2b02      	cmp	r3, #2
 800269a:	d129      	bne.n	80026f0 <xQueueGenericSend+0x120>
 800269c:	683a      	ldr	r2, [r7, #0]
 800269e:	68b9      	ldr	r1, [r7, #8]
 80026a0:	6b38      	ldr	r0, [r7, #48]	; 0x30
 80026a2:	f000 fa1c 	bl	8002ade <prvCopyDataToQueue>
 80026a6:	62f8      	str	r0, [r7, #44]	; 0x2c
 80026a8:	6b3b      	ldr	r3, [r7, #48]	; 0x30
 80026aa:	6a5b      	ldr	r3, [r3, #36]	; 0x24
 80026ac:	2b00      	cmp	r3, #0
 80026ae:	d010      	beq.n	80026d2 <xQueueGenericSend+0x102>
 80026b0:	6b3b      	ldr	r3, [r7, #48]	; 0x30
 80026b2:	3324      	adds	r3, #36	; 0x24
 80026b4:	4618      	mov	r0, r3
 80026b6:	f000 ffed 	bl	8003694 <xTaskRemoveFromEventList>
 80026ba:	4603      	mov	r3, r0
 80026bc:	2b00      	cmp	r3, #0
 80026be:	d013      	beq.n	80026e8 <xQueueGenericSend+0x118>
 80026c0:	4b3f      	ldr	r3, [pc, #252]	; (80027c0 <xQueueGenericSend+0x1f0>)
 80026c2:	f04f 5280 	mov.w	r2, #268435456	; 0x10000000
 80026c6:	601a      	str	r2, [r3, #0]
 80026c8:	f3bf 8f4f 	dsb	sy
 80026cc:	f3bf 8f6f 	isb	sy
 80026d0:	e00a      	b.n	80026e8 <xQueueGenericSend+0x118>
 80026d2:	6afb      	ldr	r3, [r7, #44]	; 0x2c
 80026d4:	2b00      	cmp	r3, #0
 80026d6:	d007      	beq.n	80026e8 <xQueueGenericSend+0x118>
 80026d8:	4b39      	ldr	r3, [pc, #228]	; (80027c0 <xQueueGenericSend+0x1f0>)
 80026da:	f04f 5280 	mov.w	r2, #268435456	; 0x10000000
 80026de:	601a      	str	r2, [r3, #0]
 80026e0:	f3bf 8f4f 	dsb	sy
 80026e4:	f3bf 8f6f 	isb	sy
 80026e8:	f001 fe8c 	bl	8004404 <vPortExitCritical>
 80026ec:	2301      	movs	r3, #1
 80026ee:	e063      	b.n	80027b8 <xQueueGenericSend+0x1e8>
 80026f0:	687b      	ldr	r3, [r7, #4]
 80026f2:	2b00      	cmp	r3, #0
 80026f4:	d103      	bne.n	80026fe <xQueueGenericSend+0x12e>
 80026f6:	f001 fe85 	bl	8004404 <vPortExitCritical>
 80026fa:	2300      	movs	r3, #0
 80026fc:	e05c      	b.n	80027b8 <xQueueGenericSend+0x1e8>
 80026fe:	6b7b      	ldr	r3, [r7, #52]	; 0x34
 8002700:	2b00      	cmp	r3, #0
 8002702:	d106      	bne.n	8002712 <xQueueGenericSend+0x142>
 8002704:	f107 0314 	add.w	r3, r7, #20
 8002708:	4618      	mov	r0, r3
 800270a:	f001 f825 	bl	8003758 <vTaskInternalSetTimeOutState>
 800270e:	2301      	movs	r3, #1
 8002710:	637b      	str	r3, [r7, #52]	; 0x34
 8002712:	f001 fe77 	bl	8004404 <vPortExitCritical>
 8002716:	f000 fd7b 	bl	8003210 <vTaskSuspendAll>
 800271a:	f001 fe45 	bl	80043a8 <vPortEnterCritical>
 800271e:	6b3b      	ldr	r3, [r7, #48]	; 0x30
 8002720:	f893 3044 	ldrb.w	r3, [r3, #68]	; 0x44
 8002724:	b25b      	sxtb	r3, r3
 8002726:	f1b3 3fff 	cmp.w	r3, #4294967295
 800272a:	d103      	bne.n	8002734 <xQueueGenericSend+0x164>
 800272c:	6b3b      	ldr	r3, [r7, #48]	; 0x30
 800272e:	2200      	movs	r2, #0
 8002730:	f883 2044 	strb.w	r2, [r3, #68]	; 0x44
 8002734:	6b3b      	ldr	r3, [r7, #48]	; 0x30
 8002736:	f893 3045 	ldrb.w	r3, [r3, #69]	; 0x45
 800273a:	b25b      	sxtb	r3, r3
 800273c:	f1b3 3fff 	cmp.w	r3, #4294967295
 8002740:	d103      	bne.n	800274a <xQueueGenericSend+0x17a>
 8002742:	6b3b      	ldr	r3, [r7, #48]	; 0x30
 8002744:	2200      	movs	r2, #0
 8002746:	f883 2045 	strb.w	r2, [r3, #69]	; 0x45
 800274a:	f001 fe5b 	bl	8004404 <vPortExitCritical>
 800274e:	1d3a      	adds	r2, r7, #4
 8002750:	f107 0314 	add.w	r3, r7, #20
 8002754:	4611      	mov	r1, r2
 8002756:	4618      	mov	r0, r3
 8002758:	f001 f814 	bl	8003784 <xTaskCheckForTimeOut>
 800275c:	4603      	mov	r3, r0
 800275e:	2b00      	cmp	r3, #0
 8002760:	d124      	bne.n	80027ac <xQueueGenericSend+0x1dc>
 8002762:	6b38      	ldr	r0, [r7, #48]	; 0x30
 8002764:	f000 fab3 	bl	8002cce <prvIsQueueFull>
 8002768:	4603      	mov	r3, r0
 800276a:	2b00      	cmp	r3, #0
 800276c:	d018      	beq.n	80027a0 <xQueueGenericSend+0x1d0>
 800276e:	6b3b      	ldr	r3, [r7, #48]	; 0x30
 8002770:	3310      	adds	r3, #16
 8002772:	687a      	ldr	r2, [r7, #4]
 8002774:	4611      	mov	r1, r2
 8002776:	4618      	mov	r0, r3
 8002778:	f000 ff3e 	bl	80035f8 <vTaskPlaceOnEventList>
 800277c:	6b38      	ldr	r0, [r7, #48]	; 0x30
 800277e:	f000 fa3e 	bl	8002bfe <prvUnlockQueue>
 8002782:	f000 fd53 	bl	800322c <xTaskResumeAll>
 8002786:	4603      	mov	r3, r0
 8002788:	2b00      	cmp	r3, #0
 800278a:	f47f af7c 	bne.w	8002686 <xQueueGenericSend+0xb6>
 800278e:	4b0c      	ldr	r3, [pc, #48]	; (80027c0 <xQueueGenericSend+0x1f0>)
 8002790:	f04f 5280 	mov.w	r2, #268435456	; 0x10000000
 8002794:	601a      	str	r2, [r3, #0]
 8002796:	f3bf 8f4f 	dsb	sy
 800279a:	f3bf 8f6f 	isb	sy
 800279e:	e772      	b.n	8002686 <xQueueGenericSend+0xb6>
 80027a0:	6b38      	ldr	r0, [r7, #48]	; 0x30
 80027a2:	f000 fa2c 	bl	8002bfe <prvUnlockQueue>
 80027a6:	f000 fd41 	bl	800322c <xTaskResumeAll>
 80027aa:	e76c      	b.n	8002686 <xQueueGenericSend+0xb6>
 80027ac:	6b38      	ldr	r0, [r7, #48]	; 0x30
 80027ae:	f000 fa26 	bl	8002bfe <prvUnlockQueue>
 80027b2:	f000 fd3b 	bl	800322c <xTaskResumeAll>
 80027b6:	2300      	movs	r3, #0
 80027b8:	4618      	mov	r0, r3
 80027ba:	3738      	adds	r7, #56	; 0x38
 80027bc:	46bd      	mov	sp, r7
 80027be:	bd80      	pop	{r7, pc}
 80027c0:	e000ed04 	.word	0xe000ed04

080027c4 <xQueueGenericSendFromISR>:
 80027c4:	b580      	push	{r7, lr}
 80027c6:	b08e      	sub	sp, #56	; 0x38
 80027c8:	af00      	add	r7, sp, #0
 80027ca:	60f8      	str	r0, [r7, #12]
 80027cc:	60b9      	str	r1, [r7, #8]
 80027ce:	607a      	str	r2, [r7, #4]
 80027d0:	603b      	str	r3, [r7, #0]
 80027d2:	68fb      	ldr	r3, [r7, #12]
 80027d4:	633b      	str	r3, [r7, #48]	; 0x30
 80027d6:	6b3b      	ldr	r3, [r7, #48]	; 0x30
 80027d8:	2b00      	cmp	r3, #0
 80027da:	d109      	bne.n	80027f0 <xQueueGenericSendFromISR+0x2c>
 80027dc:	f04f 0350 	mov.w	r3, #80	; 0x50
 80027e0:	f383 8811 	msr	BASEPRI, r3
 80027e4:	f3bf 8f6f 	isb	sy
 80027e8:	f3bf 8f4f 	dsb	sy
 80027ec:	627b      	str	r3, [r7, #36]	; 0x24
 80027ee:	e7fe      	b.n	80027ee <xQueueGenericSendFromISR+0x2a>
 80027f0:	68bb      	ldr	r3, [r7, #8]
 80027f2:	2b00      	cmp	r3, #0
 80027f4:	d103      	bne.n	80027fe <xQueueGenericSendFromISR+0x3a>
 80027f6:	6b3b      	ldr	r3, [r7, #48]	; 0x30
 80027f8:	6c1b      	ldr	r3, [r3, #64]	; 0x40
 80027fa:	2b00      	cmp	r3, #0
 80027fc:	d101      	bne.n	8002802 <xQueueGenericSendFromISR+0x3e>
 80027fe:	2301      	movs	r3, #1
 8002800:	e000      	b.n	8002804 <xQueueGenericSendFromISR+0x40>
 8002802:	2300      	movs	r3, #0
 8002804:	2b00      	cmp	r3, #0
 8002806:	d109      	bne.n	800281c <xQueueGenericSendFromISR+0x58>
 8002808:	f04f 0350 	mov.w	r3, #80	; 0x50
 800280c:	f383 8811 	msr	BASEPRI, r3
 8002810:	f3bf 8f6f 	isb	sy
 8002814:	f3bf 8f4f 	dsb	sy
 8002818:	623b      	str	r3, [r7, #32]
 800281a:	e7fe      	b.n	800281a <xQueueGenericSendFromISR+0x56>
 800281c:	683b      	ldr	r3, [r7, #0]
 800281e:	2b02      	cmp	r3, #2
 8002820:	d103      	bne.n	800282a <xQueueGenericSendFromISR+0x66>
 8002822:	6b3b      	ldr	r3, [r7, #48]	; 0x30
 8002824:	6bdb      	ldr	r3, [r3, #60]	; 0x3c
 8002826:	2b01      	cmp	r3, #1
 8002828:	d101      	bne.n	800282e <xQueueGenericSendFromISR+0x6a>
 800282a:	2301      	movs	r3, #1
 800282c:	e000      	b.n	8002830 <xQueueGenericSendFromISR+0x6c>
 800282e:	2300      	movs	r3, #0
 8002830:	2b00      	cmp	r3, #0
 8002832:	d109      	bne.n	8002848 <xQueueGenericSendFromISR+0x84>
 8002834:	f04f 0350 	mov.w	r3, #80	; 0x50
 8002838:	f383 8811 	msr	BASEPRI, r3
 800283c:	f3bf 8f6f 	isb	sy
 8002840:	f3bf 8f4f 	dsb	sy
 8002844:	61fb      	str	r3, [r7, #28]
 8002846:	e7fe      	b.n	8002846 <xQueueGenericSendFromISR+0x82>
 8002848:	f001 fe68 	bl	800451c <vPortValidateInterruptPriority>
 800284c:	f3ef 8211 	mrs	r2, BASEPRI
 8002850:	f04f 0350 	mov.w	r3, #80	; 0x50
 8002854:	f383 8811 	msr	BASEPRI, r3
 8002858:	f3bf 8f6f 	isb	sy
 800285c:	f3bf 8f4f 	dsb	sy
 8002860:	61ba      	str	r2, [r7, #24]
 8002862:	617b      	str	r3, [r7, #20]
 8002864:	69bb      	ldr	r3, [r7, #24]
 8002866:	62fb      	str	r3, [r7, #44]	; 0x2c
 8002868:	6b3b      	ldr	r3, [r7, #48]	; 0x30
 800286a:	6b9a      	ldr	r2, [r3, #56]	; 0x38
 800286c:	6b3b      	ldr	r3, [r7, #48]	; 0x30
 800286e:	6bdb      	ldr	r3, [r3, #60]	; 0x3c
 8002870:	429a      	cmp	r2, r3
 8002872:	d302      	bcc.n	800287a <xQueueGenericSendFromISR+0xb6>
 8002874:	683b      	ldr	r3, [r7, #0]
 8002876:	2b02      	cmp	r3, #2
 8002878:	d12c      	bne.n	80028d4 <xQueueGenericSendFromISR+0x110>
 800287a:	6b3b      	ldr	r3, [r7, #48]	; 0x30
 800287c:	f893 3045 	ldrb.w	r3, [r3, #69]	; 0x45
 8002880:	f887 302b 	strb.w	r3, [r7, #43]	; 0x2b
 8002884:	683a      	ldr	r2, [r7, #0]
 8002886:	68b9      	ldr	r1, [r7, #8]
 8002888:	6b38      	ldr	r0, [r7, #48]	; 0x30
 800288a:	f000 f928 	bl	8002ade <prvCopyDataToQueue>
 800288e:	f997 302b 	ldrsb.w	r3, [r7, #43]	; 0x2b
 8002892:	f1b3 3fff 	cmp.w	r3, #4294967295
 8002896:	d112      	bne.n	80028be <xQueueGenericSendFromISR+0xfa>
 8002898:	6b3b      	ldr	r3, [r7, #48]	; 0x30
 800289a:	6a5b      	ldr	r3, [r3, #36]	; 0x24
 800289c:	2b00      	cmp	r3, #0
 800289e:	d016      	beq.n	80028ce <xQueueGenericSendFromISR+0x10a>
 80028a0:	6b3b      	ldr	r3, [r7, #48]	; 0x30
 80028a2:	3324      	adds	r3, #36	; 0x24
 80028a4:	4618      	mov	r0, r3
 80028a6:	f000 fef5 	bl	8003694 <xTaskRemoveFromEventList>
 80028aa:	4603      	mov	r3, r0
 80028ac:	2b00      	cmp	r3, #0
 80028ae:	d00e      	beq.n	80028ce <xQueueGenericSendFromISR+0x10a>
 80028b0:	687b      	ldr	r3, [r7, #4]
 80028b2:	2b00      	cmp	r3, #0
 80028b4:	d00b      	beq.n	80028ce <xQueueGenericSendFromISR+0x10a>
 80028b6:	687b      	ldr	r3, [r7, #4]
 80028b8:	2201      	movs	r2, #1
 80028ba:	601a      	str	r2, [r3, #0]
 80028bc:	e007      	b.n	80028ce <xQueueGenericSendFromISR+0x10a>
 80028be:	f897 302b 	ldrb.w	r3, [r7, #43]	; 0x2b
 80028c2:	3301      	adds	r3, #1
 80028c4:	b2db      	uxtb	r3, r3
 80028c6:	b25a      	sxtb	r2, r3
 80028c8:	6b3b      	ldr	r3, [r7, #48]	; 0x30
 80028ca:	f883 2045 	strb.w	r2, [r3, #69]	; 0x45
 80028ce:	2301      	movs	r3, #1
 80028d0:	637b      	str	r3, [r7, #52]	; 0x34
 80028d2:	e001      	b.n	80028d8 <xQueueGenericSendFromISR+0x114>
 80028d4:	2300      	movs	r3, #0
 80028d6:	637b      	str	r3, [r7, #52]	; 0x34
 80028d8:	6afb      	ldr	r3, [r7, #44]	; 0x2c
 80028da:	613b      	str	r3, [r7, #16]
 80028dc:	693b      	ldr	r3, [r7, #16]
 80028de:	f383 8811 	msr	BASEPRI, r3
 80028e2:	6b7b      	ldr	r3, [r7, #52]	; 0x34
 80028e4:	4618      	mov	r0, r3
 80028e6:	3738      	adds	r7, #56	; 0x38
 80028e8:	46bd      	mov	sp, r7
 80028ea:	bd80      	pop	{r7, pc}

080028ec <xQueueReceive>:
 80028ec:	b580      	push	{r7, lr}
 80028ee:	b08c      	sub	sp, #48	; 0x30
 80028f0:	af00      	add	r7, sp, #0
 80028f2:	60f8      	str	r0, [r7, #12]
 80028f4:	60b9      	str	r1, [r7, #8]
 80028f6:	607a      	str	r2, [r7, #4]
 80028f8:	2300      	movs	r3, #0
 80028fa:	62fb      	str	r3, [r7, #44]	; 0x2c
 80028fc:	68fb      	ldr	r3, [r7, #12]
 80028fe:	62bb      	str	r3, [r7, #40]	; 0x28
 8002900:	6abb      	ldr	r3, [r7, #40]	; 0x28
 8002902:	2b00      	cmp	r3, #0
 8002904:	d109      	bne.n	800291a <xQueueReceive+0x2e>
 8002906:	f04f 0350 	mov.w	r3, #80	; 0x50
 800290a:	f383 8811 	msr	BASEPRI, r3
 800290e:	f3bf 8f6f 	isb	sy
 8002912:	f3bf 8f4f 	dsb	sy
 8002916:	623b      	str	r3, [r7, #32]
 8002918:	e7fe      	b.n	8002918 <xQueueReceive+0x2c>
 800291a:	68bb      	ldr	r3, [r7, #8]
 800291c:	2b00      	cmp	r3, #0
 800291e:	d103      	bne.n	8002928 <xQueueReceive+0x3c>
 8002920:	6abb      	ldr	r3, [r7, #40]	; 0x28
 8002922:	6c1b      	ldr	r3, [r3, #64]	; 0x40
 8002924:	2b00      	cmp	r3, #0
 8002926:	d101      	bne.n	800292c <xQueueReceive+0x40>
 8002928:	2301      	movs	r3, #1
 800292a:	e000      	b.n	800292e <xQueueReceive+0x42>
 800292c:	2300      	movs	r3, #0
 800292e:	2b00      	cmp	r3, #0
 8002930:	d109      	bne.n	8002946 <xQueueReceive+0x5a>
 8002932:	f04f 0350 	mov.w	r3, #80	; 0x50
 8002936:	f383 8811 	msr	BASEPRI, r3
 800293a:	f3bf 8f6f 	isb	sy
 800293e:	f3bf 8f4f 	dsb	sy
 8002942:	61fb      	str	r3, [r7, #28]
 8002944:	e7fe      	b.n	8002944 <xQueueReceive+0x58>
 8002946:	f001 f85f 	bl	8003a08 <xTaskGetSchedulerState>
 800294a:	4603      	mov	r3, r0
 800294c:	2b00      	cmp	r3, #0
 800294e:	d102      	bne.n	8002956 <xQueueReceive+0x6a>
 8002950:	687b      	ldr	r3, [r7, #4]
 8002952:	2b00      	cmp	r3, #0
 8002954:	d101      	bne.n	800295a <xQueueReceive+0x6e>
 8002956:	2301      	movs	r3, #1
 8002958:	e000      	b.n	800295c <xQueueReceive+0x70>
 800295a:	2300      	movs	r3, #0
 800295c:	2b00      	cmp	r3, #0
 800295e:	d109      	bne.n	8002974 <xQueueReceive+0x88>
 8002960:	f04f 0350 	mov.w	r3, #80	; 0x50
 8002964:	f383 8811 	msr	BASEPRI, r3
 8002968:	f3bf 8f6f 	isb	sy
 800296c:	f3bf 8f4f 	dsb	sy
 8002970:	61bb      	str	r3, [r7, #24]
 8002972:	e7fe      	b.n	8002972 <xQueueReceive+0x86>
 8002974:	f001 fd18 	bl	80043a8 <vPortEnterCritical>
 8002978:	6abb      	ldr	r3, [r7, #40]	; 0x28
 800297a:	6b9b      	ldr	r3, [r3, #56]	; 0x38
 800297c:	627b      	str	r3, [r7, #36]	; 0x24
 800297e:	6a7b      	ldr	r3, [r7, #36]	; 0x24
 8002980:	2b00      	cmp	r3, #0
 8002982:	d01f      	beq.n	80029c4 <xQueueReceive+0xd8>
 8002984:	68b9      	ldr	r1, [r7, #8]
 8002986:	6ab8      	ldr	r0, [r7, #40]	; 0x28
 8002988:	f000 f913 	bl	8002bb2 <prvCopyDataFromQueue>
 800298c:	6a7b      	ldr	r3, [r7, #36]	; 0x24
 800298e:	1e5a      	subs	r2, r3, #1
 8002990:	6abb      	ldr	r3, [r7, #40]	; 0x28
 8002992:	639a      	str	r2, [r3, #56]	; 0x38
 8002994:	6abb      	ldr	r3, [r7, #40]	; 0x28
 8002996:	691b      	ldr	r3, [r3, #16]
 8002998:	2b00      	cmp	r3, #0
 800299a:	d00f      	beq.n	80029bc <xQueueReceive+0xd0>
 800299c:	6abb      	ldr	r3, [r7, #40]	; 0x28
 800299e:	3310      	adds	r3, #16
 80029a0:	4618      	mov	r0, r3
 80029a2:	f000 fe77 	bl	8003694 <xTaskRemoveFromEventList>
 80029a6:	4603      	mov	r3, r0
 80029a8:	2b00      	cmp	r3, #0
 80029aa:	d007      	beq.n	80029bc <xQueueReceive+0xd0>
 80029ac:	4b3c      	ldr	r3, [pc, #240]	; (8002aa0 <xQueueReceive+0x1b4>)
 80029ae:	f04f 5280 	mov.w	r2, #268435456	; 0x10000000
 80029b2:	601a      	str	r2, [r3, #0]
 80029b4:	f3bf 8f4f 	dsb	sy
 80029b8:	f3bf 8f6f 	isb	sy
 80029bc:	f001 fd22 	bl	8004404 <vPortExitCritical>
 80029c0:	2301      	movs	r3, #1
 80029c2:	e069      	b.n	8002a98 <xQueueReceive+0x1ac>
 80029c4:	687b      	ldr	r3, [r7, #4]
 80029c6:	2b00      	cmp	r3, #0
 80029c8:	d103      	bne.n	80029d2 <xQueueReceive+0xe6>
 80029ca:	f001 fd1b 	bl	8004404 <vPortExitCritical>
 80029ce:	2300      	movs	r3, #0
 80029d0:	e062      	b.n	8002a98 <xQueueReceive+0x1ac>
 80029d2:	6afb      	ldr	r3, [r7, #44]	; 0x2c
 80029d4:	2b00      	cmp	r3, #0
 80029d6:	d106      	bne.n	80029e6 <xQueueReceive+0xfa>
 80029d8:	f107 0310 	add.w	r3, r7, #16
 80029dc:	4618      	mov	r0, r3
 80029de:	f000 febb 	bl	8003758 <vTaskInternalSetTimeOutState>
 80029e2:	2301      	movs	r3, #1
 80029e4:	62fb      	str	r3, [r7, #44]	; 0x2c
 80029e6:	f001 fd0d 	bl	8004404 <vPortExitCritical>
 80029ea:	f000 fc11 	bl	8003210 <vTaskSuspendAll>
 80029ee:	f001 fcdb 	bl	80043a8 <vPortEnterCritical>
 80029f2:	6abb      	ldr	r3, [r7, #40]	; 0x28
 80029f4:	f893 3044 	ldrb.w	r3, [r3, #68]	; 0x44
 80029f8:	b25b      	sxtb	r3, r3
 80029fa:	f1b3 3fff 	cmp.w	r3, #4294967295
 80029fe:	d103      	bne.n	8002a08 <xQueueReceive+0x11c>
 8002a00:	6abb      	ldr	r3, [r7, #40]	; 0x28
 8002a02:	2200      	movs	r2, #0
 8002a04:	f883 2044 	strb.w	r2, [r3, #68]	; 0x44
 8002a08:	6abb      	ldr	r3, [r7, #40]	; 0x28
 8002a0a:	f893 3045 	ldrb.w	r3, [r3, #69]	; 0x45
 8002a0e:	b25b      	sxtb	r3, r3
 8002a10:	f1b3 3fff 	cmp.w	r3, #4294967295
 8002a14:	d103      	bne.n	8002a1e <xQueueReceive+0x132>
 8002a16:	6abb      	ldr	r3, [r7, #40]	; 0x28
 8002a18:	2200      	movs	r2, #0
 8002a1a:	f883 2045 	strb.w	r2, [r3, #69]	; 0x45
 8002a1e:	f001 fcf1 	bl	8004404 <vPortExitCritical>
 8002a22:	1d3a      	adds	r2, r7, #4
 8002a24:	f107 0310 	add.w	r3, r7, #16
 8002a28:	4611      	mov	r1, r2
 8002a2a:	4618      	mov	r0, r3
 8002a2c:	f000 feaa 	bl	8003784 <xTaskCheckForTimeOut>
 8002a30:	4603      	mov	r3, r0
 8002a32:	2b00      	cmp	r3, #0
 8002a34:	d123      	bne.n	8002a7e <xQueueReceive+0x192>
 8002a36:	6ab8      	ldr	r0, [r7, #40]	; 0x28
 8002a38:	f000 f933 	bl	8002ca2 <prvIsQueueEmpty>
 8002a3c:	4603      	mov	r3, r0
 8002a3e:	2b00      	cmp	r3, #0
 8002a40:	d017      	beq.n	8002a72 <xQueueReceive+0x186>
 8002a42:	6abb      	ldr	r3, [r7, #40]	; 0x28
 8002a44:	3324      	adds	r3, #36	; 0x24
 8002a46:	687a      	ldr	r2, [r7, #4]
 8002a48:	4611      	mov	r1, r2
 8002a4a:	4618      	mov	r0, r3
 8002a4c:	f000 fdd4 	bl	80035f8 <vTaskPlaceOnEventList>
 8002a50:	6ab8      	ldr	r0, [r7, #40]	; 0x28
 8002a52:	f000 f8d4 	bl	8002bfe <prvUnlockQueue>
 8002a56:	f000 fbe9 	bl	800322c <xTaskResumeAll>
 8002a5a:	4603      	mov	r3, r0
 8002a5c:	2b00      	cmp	r3, #0
 8002a5e:	d189      	bne.n	8002974 <xQueueReceive+0x88>
 8002a60:	4b0f      	ldr	r3, [pc, #60]	; (8002aa0 <xQueueReceive+0x1b4>)
 8002a62:	f04f 5280 	mov.w	r2, #268435456	; 0x10000000
 8002a66:	601a      	str	r2, [r3, #0]
 8002a68:	f3bf 8f4f 	dsb	sy
 8002a6c:	f3bf 8f6f 	isb	sy
 8002a70:	e780      	b.n	8002974 <xQueueReceive+0x88>
 8002a72:	6ab8      	ldr	r0, [r7, #40]	; 0x28
 8002a74:	f000 f8c3 	bl	8002bfe <prvUnlockQueue>
 8002a78:	f000 fbd8 	bl	800322c <xTaskResumeAll>
 8002a7c:	e77a      	b.n	8002974 <xQueueReceive+0x88>
 8002a7e:	6ab8      	ldr	r0, [r7, #40]	; 0x28
 8002a80:	f000 f8bd 	bl	8002bfe <prvUnlockQueue>
 8002a84:	f000 fbd2 	bl	800322c <xTaskResumeAll>
 8002a88:	6ab8      	ldr	r0, [r7, #40]	; 0x28
 8002a8a:	f000 f90a 	bl	8002ca2 <prvIsQueueEmpty>
 8002a8e:	4603      	mov	r3, r0
 8002a90:	2b00      	cmp	r3, #0
 8002a92:	f43f af6f 	beq.w	8002974 <xQueueReceive+0x88>
 8002a96:	2300      	movs	r3, #0
 8002a98:	4618      	mov	r0, r3
 8002a9a:	3730      	adds	r7, #48	; 0x30
 8002a9c:	46bd      	mov	sp, r7
 8002a9e:	bd80      	pop	{r7, pc}
 8002aa0:	e000ed04 	.word	0xe000ed04

08002aa4 <uxQueueMessagesWaiting>:
 8002aa4:	b580      	push	{r7, lr}
 8002aa6:	b084      	sub	sp, #16
 8002aa8:	af00      	add	r7, sp, #0
 8002aaa:	6078      	str	r0, [r7, #4]
 8002aac:	687b      	ldr	r3, [r7, #4]
 8002aae:	2b00      	cmp	r3, #0
 8002ab0:	d109      	bne.n	8002ac6 <uxQueueMessagesWaiting+0x22>
 8002ab2:	f04f 0350 	mov.w	r3, #80	; 0x50
 8002ab6:	f383 8811 	msr	BASEPRI, r3
 8002aba:	f3bf 8f6f 	isb	sy
 8002abe:	f3bf 8f4f 	dsb	sy
 8002ac2:	60bb      	str	r3, [r7, #8]
 8002ac4:	e7fe      	b.n	8002ac4 <uxQueueMessagesWaiting+0x20>
 8002ac6:	f001 fc6f 	bl	80043a8 <vPortEnterCritical>
 8002aca:	687b      	ldr	r3, [r7, #4]
 8002acc:	6b9b      	ldr	r3, [r3, #56]	; 0x38
 8002ace:	60fb      	str	r3, [r7, #12]
 8002ad0:	f001 fc98 	bl	8004404 <vPortExitCritical>
 8002ad4:	68fb      	ldr	r3, [r7, #12]
 8002ad6:	4618      	mov	r0, r3
 8002ad8:	3710      	adds	r7, #16
 8002ada:	46bd      	mov	sp, r7
 8002adc:	bd80      	pop	{r7, pc}

08002ade <prvCopyDataToQueue>:
 8002ade:	b580      	push	{r7, lr}
 8002ae0:	b086      	sub	sp, #24
 8002ae2:	af00      	add	r7, sp, #0
 8002ae4:	60f8      	str	r0, [r7, #12]
 8002ae6:	60b9      	str	r1, [r7, #8]
 8002ae8:	607a      	str	r2, [r7, #4]
 8002aea:	2300      	movs	r3, #0
 8002aec:	617b      	str	r3, [r7, #20]
 8002aee:	68fb      	ldr	r3, [r7, #12]
 8002af0:	6b9b      	ldr	r3, [r3, #56]	; 0x38
 8002af2:	613b      	str	r3, [r7, #16]
 8002af4:	68fb      	ldr	r3, [r7, #12]
 8002af6:	6c1b      	ldr	r3, [r3, #64]	; 0x40
 8002af8:	2b00      	cmp	r3, #0
 8002afa:	d10d      	bne.n	8002b18 <prvCopyDataToQueue+0x3a>
 8002afc:	68fb      	ldr	r3, [r7, #12]
 8002afe:	681b      	ldr	r3, [r3, #0]
 8002b00:	2b00      	cmp	r3, #0
 8002b02:	d14d      	bne.n	8002ba0 <prvCopyDataToQueue+0xc2>
 8002b04:	68fb      	ldr	r3, [r7, #12]
 8002b06:	685b      	ldr	r3, [r3, #4]
 8002b08:	4618      	mov	r0, r3
 8002b0a:	f000 ff9b 	bl	8003a44 <xTaskPriorityDisinherit>
 8002b0e:	6178      	str	r0, [r7, #20]
 8002b10:	68fb      	ldr	r3, [r7, #12]
 8002b12:	2200      	movs	r2, #0
 8002b14:	605a      	str	r2, [r3, #4]
 8002b16:	e043      	b.n	8002ba0 <prvCopyDataToQueue+0xc2>
 8002b18:	687b      	ldr	r3, [r7, #4]
 8002b1a:	2b00      	cmp	r3, #0
 8002b1c:	d119      	bne.n	8002b52 <prvCopyDataToQueue+0x74>
 8002b1e:	68fb      	ldr	r3, [r7, #12]
 8002b20:	6898      	ldr	r0, [r3, #8]
 8002b22:	68fb      	ldr	r3, [r7, #12]
 8002b24:	6c1b      	ldr	r3, [r3, #64]	; 0x40
 8002b26:	461a      	mov	r2, r3
 8002b28:	68b9      	ldr	r1, [r7, #8]
 8002b2a:	f001 ff31 	bl	8004990 <memcpy>
 8002b2e:	68fb      	ldr	r3, [r7, #12]
 8002b30:	689a      	ldr	r2, [r3, #8]
 8002b32:	68fb      	ldr	r3, [r7, #12]
 8002b34:	6c1b      	ldr	r3, [r3, #64]	; 0x40
 8002b36:	441a      	add	r2, r3
 8002b38:	68fb      	ldr	r3, [r7, #12]
 8002b3a:	609a      	str	r2, [r3, #8]
 8002b3c:	68fb      	ldr	r3, [r7, #12]
 8002b3e:	689a      	ldr	r2, [r3, #8]
 8002b40:	68fb      	ldr	r3, [r7, #12]
 8002b42:	685b      	ldr	r3, [r3, #4]
 8002b44:	429a      	cmp	r2, r3
 8002b46:	d32b      	bcc.n	8002ba0 <prvCopyDataToQueue+0xc2>
 8002b48:	68fb      	ldr	r3, [r7, #12]
 8002b4a:	681a      	ldr	r2, [r3, #0]
 8002b4c:	68fb      	ldr	r3, [r7, #12]
 8002b4e:	609a      	str	r2, [r3, #8]
 8002b50:	e026      	b.n	8002ba0 <prvCopyDataToQueue+0xc2>
 8002b52:	68fb      	ldr	r3, [r7, #12]
 8002b54:	68d8      	ldr	r0, [r3, #12]
 8002b56:	68fb      	ldr	r3, [r7, #12]
 8002b58:	6c1b      	ldr	r3, [r3, #64]	; 0x40
 8002b5a:	461a      	mov	r2, r3
 8002b5c:	68b9      	ldr	r1, [r7, #8]
 8002b5e:	f001 ff17 	bl	8004990 <memcpy>
 8002b62:	68fb      	ldr	r3, [r7, #12]
 8002b64:	68da      	ldr	r2, [r3, #12]
 8002b66:	68fb      	ldr	r3, [r7, #12]
 8002b68:	6c1b      	ldr	r3, [r3, #64]	; 0x40
 8002b6a:	425b      	negs	r3, r3
 8002b6c:	441a      	add	r2, r3
 8002b6e:	68fb      	ldr	r3, [r7, #12]
 8002b70:	60da      	str	r2, [r3, #12]
 8002b72:	68fb      	ldr	r3, [r7, #12]
 8002b74:	68da      	ldr	r2, [r3, #12]
 8002b76:	68fb      	ldr	r3, [r7, #12]
 8002b78:	681b      	ldr	r3, [r3, #0]
 8002b7a:	429a      	cmp	r2, r3
 8002b7c:	d207      	bcs.n	8002b8e <prvCopyDataToQueue+0xb0>
 8002b7e:	68fb      	ldr	r3, [r7, #12]
 8002b80:	685a      	ldr	r2, [r3, #4]
 8002b82:	68fb      	ldr	r3, [r7, #12]
 8002b84:	6c1b      	ldr	r3, [r3, #64]	; 0x40
 8002b86:	425b      	negs	r3, r3
 8002b88:	441a      	add	r2, r3
 8002b8a:	68fb      	ldr	r3, [r7, #12]
 8002b8c:	60da      	str	r2, [r3, #12]
 8002b8e:	687b      	ldr	r3, [r7, #4]
 8002b90:	2b02      	cmp	r3, #2
 8002b92:	d105      	bne.n	8002ba0 <prvCopyDataToQueue+0xc2>
 8002b94:	693b      	ldr	r3, [r7, #16]
 8002b96:	2b00      	cmp	r3, #0
 8002b98:	d002      	beq.n	8002ba0 <prvCopyDataToQueue+0xc2>
 8002b9a:	693b      	ldr	r3, [r7, #16]
 8002b9c:	3b01      	subs	r3, #1
 8002b9e:	613b      	str	r3, [r7, #16]
 8002ba0:	693b      	ldr	r3, [r7, #16]
 8002ba2:	1c5a      	adds	r2, r3, #1
 8002ba4:	68fb      	ldr	r3, [r7, #12]
 8002ba6:	639a      	str	r2, [r3, #56]	; 0x38
 8002ba8:	697b      	ldr	r3, [r7, #20]
 8002baa:	4618      	mov	r0, r3
 8002bac:	3718      	adds	r7, #24
 8002bae:	46bd      	mov	sp, r7
 8002bb0:	bd80      	pop	{r7, pc}

08002bb2 <prvCopyDataFromQueue>:
 8002bb2:	b580      	push	{r7, lr}
 8002bb4:	b082      	sub	sp, #8
 8002bb6:	af00      	add	r7, sp, #0
 8002bb8:	6078      	str	r0, [r7, #4]
 8002bba:	6039      	str	r1, [r7, #0]
 8002bbc:	687b      	ldr	r3, [r7, #4]
 8002bbe:	6c1b      	ldr	r3, [r3, #64]	; 0x40
 8002bc0:	2b00      	cmp	r3, #0
 8002bc2:	d018      	beq.n	8002bf6 <prvCopyDataFromQueue+0x44>
 8002bc4:	687b      	ldr	r3, [r7, #4]
 8002bc6:	68da      	ldr	r2, [r3, #12]
 8002bc8:	687b      	ldr	r3, [r7, #4]
 8002bca:	6c1b      	ldr	r3, [r3, #64]	; 0x40
 8002bcc:	441a      	add	r2, r3
 8002bce:	687b      	ldr	r3, [r7, #4]
 8002bd0:	60da      	str	r2, [r3, #12]
 8002bd2:	687b      	ldr	r3, [r7, #4]
 8002bd4:	68da      	ldr	r2, [r3, #12]
 8002bd6:	687b      	ldr	r3, [r7, #4]
 8002bd8:	685b      	ldr	r3, [r3, #4]
 8002bda:	429a      	cmp	r2, r3
 8002bdc:	d303      	bcc.n	8002be6 <prvCopyDataFromQueue+0x34>
 8002bde:	687b      	ldr	r3, [r7, #4]
 8002be0:	681a      	ldr	r2, [r3, #0]
 8002be2:	687b      	ldr	r3, [r7, #4]
 8002be4:	60da      	str	r2, [r3, #12]
 8002be6:	687b      	ldr	r3, [r7, #4]
 8002be8:	68d9      	ldr	r1, [r3, #12]
 8002bea:	687b      	ldr	r3, [r7, #4]
 8002bec:	6c1b      	ldr	r3, [r3, #64]	; 0x40
 8002bee:	461a      	mov	r2, r3
 8002bf0:	6838      	ldr	r0, [r7, #0]
 8002bf2:	f001 fecd 	bl	8004990 <memcpy>
 8002bf6:	bf00      	nop
 8002bf8:	3708      	adds	r7, #8
 8002bfa:	46bd      	mov	sp, r7
 8002bfc:	bd80      	pop	{r7, pc}

08002bfe <prvUnlockQueue>:
 8002bfe:	b580      	push	{r7, lr}
 8002c00:	b084      	sub	sp, #16
 8002c02:	af00      	add	r7, sp, #0
 8002c04:	6078      	str	r0, [r7, #4]
 8002c06:	f001 fbcf 	bl	80043a8 <vPortEnterCritical>
 8002c0a:	687b      	ldr	r3, [r7, #4]
 8002c0c:	f893 3045 	ldrb.w	r3, [r3, #69]	; 0x45
 8002c10:	73fb      	strb	r3, [r7, #15]
 8002c12:	e011      	b.n	8002c38 <prvUnlockQueue+0x3a>
 8002c14:	687b      	ldr	r3, [r7, #4]
 8002c16:	6a5b      	ldr	r3, [r3, #36]	; 0x24
 8002c18:	2b00      	cmp	r3, #0
 8002c1a:	d012      	beq.n	8002c42 <prvUnlockQueue+0x44>
 8002c1c:	687b      	ldr	r3, [r7, #4]
 8002c1e:	3324      	adds	r3, #36	; 0x24
 8002c20:	4618      	mov	r0, r3
 8002c22:	f000 fd37 	bl	8003694 <xTaskRemoveFromEventList>
 8002c26:	4603      	mov	r3, r0
 8002c28:	2b00      	cmp	r3, #0
 8002c2a:	d001      	beq.n	8002c30 <prvUnlockQueue+0x32>
 8002c2c:	f000 fe0a 	bl	8003844 <vTaskMissedYield>
 8002c30:	7bfb      	ldrb	r3, [r7, #15]
 8002c32:	3b01      	subs	r3, #1
 8002c34:	b2db      	uxtb	r3, r3
 8002c36:	73fb      	strb	r3, [r7, #15]
 8002c38:	f997 300f 	ldrsb.w	r3, [r7, #15]
 8002c3c:	2b00      	cmp	r3, #0
 8002c3e:	dce9      	bgt.n	8002c14 <prvUnlockQueue+0x16>
 8002c40:	e000      	b.n	8002c44 <prvUnlockQueue+0x46>
 8002c42:	bf00      	nop
 8002c44:	687b      	ldr	r3, [r7, #4]
 8002c46:	22ff      	movs	r2, #255	; 0xff
 8002c48:	f883 2045 	strb.w	r2, [r3, #69]	; 0x45
 8002c4c:	f001 fbda 	bl	8004404 <vPortExitCritical>
 8002c50:	f001 fbaa 	bl	80043a8 <vPortEnterCritical>
 8002c54:	687b      	ldr	r3, [r7, #4]
 8002c56:	f893 3044 	ldrb.w	r3, [r3, #68]	; 0x44
 8002c5a:	73bb      	strb	r3, [r7, #14]
 8002c5c:	e011      	b.n	8002c82 <prvUnlockQueue+0x84>
 8002c5e:	687b      	ldr	r3, [r7, #4]
 8002c60:	691b      	ldr	r3, [r3, #16]
 8002c62:	2b00      	cmp	r3, #0
 8002c64:	d012      	beq.n	8002c8c <prvUnlockQueue+0x8e>
 8002c66:	687b      	ldr	r3, [r7, #4]
 8002c68:	3310      	adds	r3, #16
 8002c6a:	4618      	mov	r0, r3
 8002c6c:	f000 fd12 	bl	8003694 <xTaskRemoveFromEventList>
 8002c70:	4603      	mov	r3, r0
 8002c72:	2b00      	cmp	r3, #0
 8002c74:	d001      	beq.n	8002c7a <prvUnlockQueue+0x7c>
 8002c76:	f000 fde5 	bl	8003844 <vTaskMissedYield>
 8002c7a:	7bbb      	ldrb	r3, [r7, #14]
 8002c7c:	3b01      	subs	r3, #1
 8002c7e:	b2db      	uxtb	r3, r3
 8002c80:	73bb      	strb	r3, [r7, #14]
 8002c82:	f997 300e 	ldrsb.w	r3, [r7, #14]
 8002c86:	2b00      	cmp	r3, #0
 8002c88:	dce9      	bgt.n	8002c5e <prvUnlockQueue+0x60>
 8002c8a:	e000      	b.n	8002c8e <prvUnlockQueue+0x90>
 8002c8c:	bf00      	nop
 8002c8e:	687b      	ldr	r3, [r7, #4]
 8002c90:	22ff      	movs	r2, #255	; 0xff
 8002c92:	f883 2044 	strb.w	r2, [r3, #68]	; 0x44
 8002c96:	f001 fbb5 	bl	8004404 <vPortExitCritical>
 8002c9a:	bf00      	nop
 8002c9c:	3710      	adds	r7, #16
 8002c9e:	46bd      	mov	sp, r7
 8002ca0:	bd80      	pop	{r7, pc}

08002ca2 <prvIsQueueEmpty>:
 8002ca2:	b580      	push	{r7, lr}
 8002ca4:	b084      	sub	sp, #16
 8002ca6:	af00      	add	r7, sp, #0
 8002ca8:	6078      	str	r0, [r7, #4]
 8002caa:	f001 fb7d 	bl	80043a8 <vPortEnterCritical>
 8002cae:	687b      	ldr	r3, [r7, #4]
 8002cb0:	6b9b      	ldr	r3, [r3, #56]	; 0x38
 8002cb2:	2b00      	cmp	r3, #0
 8002cb4:	d102      	bne.n	8002cbc <prvIsQueueEmpty+0x1a>
 8002cb6:	2301      	movs	r3, #1
 8002cb8:	60fb      	str	r3, [r7, #12]
 8002cba:	e001      	b.n	8002cc0 <prvIsQueueEmpty+0x1e>
 8002cbc:	2300      	movs	r3, #0
 8002cbe:	60fb      	str	r3, [r7, #12]
 8002cc0:	f001 fba0 	bl	8004404 <vPortExitCritical>
 8002cc4:	68fb      	ldr	r3, [r7, #12]
 8002cc6:	4618      	mov	r0, r3
 8002cc8:	3710      	adds	r7, #16
 8002cca:	46bd      	mov	sp, r7
 8002ccc:	bd80      	pop	{r7, pc}

08002cce <prvIsQueueFull>:
 8002cce:	b580      	push	{r7, lr}
 8002cd0:	b084      	sub	sp, #16
 8002cd2:	af00      	add	r7, sp, #0
 8002cd4:	6078      	str	r0, [r7, #4]
 8002cd6:	f001 fb67 	bl	80043a8 <vPortEnterCritical>
 8002cda:	687b      	ldr	r3, [r7, #4]
 8002cdc:	6b9a      	ldr	r2, [r3, #56]	; 0x38
 8002cde:	687b      	ldr	r3, [r7, #4]
 8002ce0:	6bdb      	ldr	r3, [r3, #60]	; 0x3c
 8002ce2:	429a      	cmp	r2, r3
 8002ce4:	d102      	bne.n	8002cec <prvIsQueueFull+0x1e>
 8002ce6:	2301      	movs	r3, #1
 8002ce8:	60fb      	str	r3, [r7, #12]
 8002cea:	e001      	b.n	8002cf0 <prvIsQueueFull+0x22>
 8002cec:	2300      	movs	r3, #0
 8002cee:	60fb      	str	r3, [r7, #12]
 8002cf0:	f001 fb88 	bl	8004404 <vPortExitCritical>
 8002cf4:	68fb      	ldr	r3, [r7, #12]
 8002cf6:	4618      	mov	r0, r3
 8002cf8:	3710      	adds	r7, #16
 8002cfa:	46bd      	mov	sp, r7
 8002cfc:	bd80      	pop	{r7, pc}
	...

08002d00 <vQueueAddToRegistry>:
 8002d00:	b480      	push	{r7}
 8002d02:	b085      	sub	sp, #20
 8002d04:	af00      	add	r7, sp, #0
 8002d06:	6078      	str	r0, [r7, #4]
 8002d08:	6039      	str	r1, [r7, #0]
 8002d0a:	2300      	movs	r3, #0
 8002d0c:	60fb      	str	r3, [r7, #12]
 8002d0e:	e014      	b.n	8002d3a <vQueueAddToRegistry+0x3a>
 8002d10:	4a0e      	ldr	r2, [pc, #56]	; (8002d4c <vQueueAddToRegistry+0x4c>)
 8002d12:	68fb      	ldr	r3, [r7, #12]
 8002d14:	f852 3033 	ldr.w	r3, [r2, r3, lsl #3]
 8002d18:	2b00      	cmp	r3, #0
 8002d1a:	d10b      	bne.n	8002d34 <vQueueAddToRegistry+0x34>
 8002d1c:	490b      	ldr	r1, [pc, #44]	; (8002d4c <vQueueAddToRegistry+0x4c>)
 8002d1e:	68fb      	ldr	r3, [r7, #12]
 8002d20:	683a      	ldr	r2, [r7, #0]
 8002d22:	f841 2033 	str.w	r2, [r1, r3, lsl #3]
 8002d26:	4a09      	ldr	r2, [pc, #36]	; (8002d4c <vQueueAddToRegistry+0x4c>)
 8002d28:	68fb      	ldr	r3, [r7, #12]
 8002d2a:	00db      	lsls	r3, r3, #3
 8002d2c:	4413      	add	r3, r2
 8002d2e:	687a      	ldr	r2, [r7, #4]
 8002d30:	605a      	str	r2, [r3, #4]
 8002d32:	e005      	b.n	8002d40 <vQueueAddToRegistry+0x40>
 8002d34:	68fb      	ldr	r3, [r7, #12]
 8002d36:	3301      	adds	r3, #1
 8002d38:	60fb      	str	r3, [r7, #12]
 8002d3a:	68fb      	ldr	r3, [r7, #12]
 8002d3c:	2b07      	cmp	r3, #7
 8002d3e:	d9e7      	bls.n	8002d10 <vQueueAddToRegistry+0x10>
 8002d40:	bf00      	nop
 8002d42:	3714      	adds	r7, #20
 8002d44:	46bd      	mov	sp, r7
 8002d46:	bc80      	pop	{r7}
 8002d48:	4770      	bx	lr
 8002d4a:	bf00      	nop
 8002d4c:	20001d70 	.word	0x20001d70

08002d50 <vQueueWaitForMessageRestricted>:
 8002d50:	b580      	push	{r7, lr}
 8002d52:	b086      	sub	sp, #24
 8002d54:	af00      	add	r7, sp, #0
 8002d56:	60f8      	str	r0, [r7, #12]
 8002d58:	60b9      	str	r1, [r7, #8]
 8002d5a:	607a      	str	r2, [r7, #4]
 8002d5c:	68fb      	ldr	r3, [r7, #12]
 8002d5e:	617b      	str	r3, [r7, #20]
 8002d60:	f001 fb22 	bl	80043a8 <vPortEnterCritical>
 8002d64:	697b      	ldr	r3, [r7, #20]
 8002d66:	f893 3044 	ldrb.w	r3, [r3, #68]	; 0x44
 8002d6a:	b25b      	sxtb	r3, r3
 8002d6c:	f1b3 3fff 	cmp.w	r3, #4294967295
 8002d70:	d103      	bne.n	8002d7a <vQueueWaitForMessageRestricted+0x2a>
 8002d72:	697b      	ldr	r3, [r7, #20]
 8002d74:	2200      	movs	r2, #0
 8002d76:	f883 2044 	strb.w	r2, [r3, #68]	; 0x44
 8002d7a:	697b      	ldr	r3, [r7, #20]
 8002d7c:	f893 3045 	ldrb.w	r3, [r3, #69]	; 0x45
 8002d80:	b25b      	sxtb	r3, r3
 8002d82:	f1b3 3fff 	cmp.w	r3, #4294967295
 8002d86:	d103      	bne.n	8002d90 <vQueueWaitForMessageRestricted+0x40>
 8002d88:	697b      	ldr	r3, [r7, #20]
 8002d8a:	2200      	movs	r2, #0
 8002d8c:	f883 2045 	strb.w	r2, [r3, #69]	; 0x45
 8002d90:	f001 fb38 	bl	8004404 <vPortExitCritical>
 8002d94:	697b      	ldr	r3, [r7, #20]
 8002d96:	6b9b      	ldr	r3, [r3, #56]	; 0x38
 8002d98:	2b00      	cmp	r3, #0
 8002d9a:	d106      	bne.n	8002daa <vQueueWaitForMessageRestricted+0x5a>
 8002d9c:	697b      	ldr	r3, [r7, #20]
 8002d9e:	3324      	adds	r3, #36	; 0x24
 8002da0:	687a      	ldr	r2, [r7, #4]
 8002da2:	68b9      	ldr	r1, [r7, #8]
 8002da4:	4618      	mov	r0, r3
 8002da6:	f000 fc4b 	bl	8003640 <vTaskPlaceOnEventListRestricted>
 8002daa:	6978      	ldr	r0, [r7, #20]
 8002dac:	f7ff ff27 	bl	8002bfe <prvUnlockQueue>
 8002db0:	bf00      	nop
 8002db2:	3718      	adds	r7, #24
 8002db4:	46bd      	mov	sp, r7
 8002db6:	bd80      	pop	{r7, pc}

08002db8 <xTaskCreateStatic>:
 8002db8:	b580      	push	{r7, lr}
 8002dba:	b08e      	sub	sp, #56	; 0x38
 8002dbc:	af04      	add	r7, sp, #16
 8002dbe:	60f8      	str	r0, [r7, #12]
 8002dc0:	60b9      	str	r1, [r7, #8]
 8002dc2:	607a      	str	r2, [r7, #4]
 8002dc4:	603b      	str	r3, [r7, #0]
 8002dc6:	6b7b      	ldr	r3, [r7, #52]	; 0x34
 8002dc8:	2b00      	cmp	r3, #0
 8002dca:	d109      	bne.n	8002de0 <xTaskCreateStatic+0x28>
 8002dcc:	f04f 0350 	mov.w	r3, #80	; 0x50
 8002dd0:	f383 8811 	msr	BASEPRI, r3
 8002dd4:	f3bf 8f6f 	isb	sy
 8002dd8:	f3bf 8f4f 	dsb	sy
 8002ddc:	623b      	str	r3, [r7, #32]
 8002dde:	e7fe      	b.n	8002dde <xTaskCreateStatic+0x26>
 8002de0:	6bbb      	ldr	r3, [r7, #56]	; 0x38
 8002de2:	2b00      	cmp	r3, #0
 8002de4:	d109      	bne.n	8002dfa <xTaskCreateStatic+0x42>
 8002de6:	f04f 0350 	mov.w	r3, #80	; 0x50
 8002dea:	f383 8811 	msr	BASEPRI, r3
 8002dee:	f3bf 8f6f 	isb	sy
 8002df2:	f3bf 8f4f 	dsb	sy
 8002df6:	61fb      	str	r3, [r7, #28]
 8002df8:	e7fe      	b.n	8002df8 <xTaskCreateStatic+0x40>
 8002dfa:	235c      	movs	r3, #92	; 0x5c
 8002dfc:	613b      	str	r3, [r7, #16]
 8002dfe:	693b      	ldr	r3, [r7, #16]
 8002e00:	2b5c      	cmp	r3, #92	; 0x5c
 8002e02:	d009      	beq.n	8002e18 <xTaskCreateStatic+0x60>
 8002e04:	f04f 0350 	mov.w	r3, #80	; 0x50
 8002e08:	f383 8811 	msr	BASEPRI, r3
 8002e0c:	f3bf 8f6f 	isb	sy
 8002e10:	f3bf 8f4f 	dsb	sy
 8002e14:	61bb      	str	r3, [r7, #24]
 8002e16:	e7fe      	b.n	8002e16 <xTaskCreateStatic+0x5e>
 8002e18:	6bbb      	ldr	r3, [r7, #56]	; 0x38
 8002e1a:	2b00      	cmp	r3, #0
 8002e1c:	d01e      	beq.n	8002e5c <xTaskCreateStatic+0xa4>
 8002e1e:	6b7b      	ldr	r3, [r7, #52]	; 0x34
 8002e20:	2b00      	cmp	r3, #0
 8002e22:	d01b      	beq.n	8002e5c <xTaskCreateStatic+0xa4>
 8002e24:	6bbb      	ldr	r3, [r7, #56]	; 0x38
 8002e26:	627b      	str	r3, [r7, #36]	; 0x24
 8002e28:	6a7b      	ldr	r3, [r7, #36]	; 0x24
 8002e2a:	6b7a      	ldr	r2, [r7, #52]	; 0x34
 8002e2c:	631a      	str	r2, [r3, #48]	; 0x30
 8002e2e:	6a7b      	ldr	r3, [r7, #36]	; 0x24
 8002e30:	2202      	movs	r2, #2
 8002e32:	f883 2059 	strb.w	r2, [r3, #89]	; 0x59
 8002e36:	2300      	movs	r3, #0
 8002e38:	9303      	str	r3, [sp, #12]
 8002e3a:	6a7b      	ldr	r3, [r7, #36]	; 0x24
 8002e3c:	9302      	str	r3, [sp, #8]
 8002e3e:	f107 0314 	add.w	r3, r7, #20
 8002e42:	9301      	str	r3, [sp, #4]
 8002e44:	6b3b      	ldr	r3, [r7, #48]	; 0x30
 8002e46:	9300      	str	r3, [sp, #0]
 8002e48:	683b      	ldr	r3, [r7, #0]
 8002e4a:	687a      	ldr	r2, [r7, #4]
 8002e4c:	68b9      	ldr	r1, [r7, #8]
 8002e4e:	68f8      	ldr	r0, [r7, #12]
 8002e50:	f000 f850 	bl	8002ef4 <prvInitialiseNewTask>
 8002e54:	6a78      	ldr	r0, [r7, #36]	; 0x24
 8002e56:	f000 f8d3 	bl	8003000 <prvAddNewTaskToReadyList>
 8002e5a:	e001      	b.n	8002e60 <xTaskCreateStatic+0xa8>
 8002e5c:	2300      	movs	r3, #0
 8002e5e:	617b      	str	r3, [r7, #20]
 8002e60:	697b      	ldr	r3, [r7, #20]
 8002e62:	4618      	mov	r0, r3
 8002e64:	3728      	adds	r7, #40	; 0x28
 8002e66:	46bd      	mov	sp, r7
 8002e68:	bd80      	pop	{r7, pc}

08002e6a <xTaskCreate>:
 8002e6a:	b580      	push	{r7, lr}
 8002e6c:	b08c      	sub	sp, #48	; 0x30
 8002e6e:	af04      	add	r7, sp, #16
 8002e70:	60f8      	str	r0, [r7, #12]
 8002e72:	60b9      	str	r1, [r7, #8]
 8002e74:	603b      	str	r3, [r7, #0]
 8002e76:	4613      	mov	r3, r2
 8002e78:	80fb      	strh	r3, [r7, #6]
 8002e7a:	88fb      	ldrh	r3, [r7, #6]
 8002e7c:	009b      	lsls	r3, r3, #2
 8002e7e:	4618      	mov	r0, r3
 8002e80:	f001 fb88 	bl	8004594 <pvPortMalloc>
 8002e84:	6178      	str	r0, [r7, #20]
 8002e86:	697b      	ldr	r3, [r7, #20]
 8002e88:	2b00      	cmp	r3, #0
 8002e8a:	d00e      	beq.n	8002eaa <xTaskCreate+0x40>
 8002e8c:	205c      	movs	r0, #92	; 0x5c
 8002e8e:	f001 fb81 	bl	8004594 <pvPortMalloc>
 8002e92:	61f8      	str	r0, [r7, #28]
 8002e94:	69fb      	ldr	r3, [r7, #28]
 8002e96:	2b00      	cmp	r3, #0
 8002e98:	d003      	beq.n	8002ea2 <xTaskCreate+0x38>
 8002e9a:	69fb      	ldr	r3, [r7, #28]
 8002e9c:	697a      	ldr	r2, [r7, #20]
 8002e9e:	631a      	str	r2, [r3, #48]	; 0x30
 8002ea0:	e005      	b.n	8002eae <xTaskCreate+0x44>
 8002ea2:	6978      	ldr	r0, [r7, #20]
 8002ea4:	f001 fc38 	bl	8004718 <vPortFree>
 8002ea8:	e001      	b.n	8002eae <xTaskCreate+0x44>
 8002eaa:	2300      	movs	r3, #0
 8002eac:	61fb      	str	r3, [r7, #28]
 8002eae:	69fb      	ldr	r3, [r7, #28]
 8002eb0:	2b00      	cmp	r3, #0
 8002eb2:	d017      	beq.n	8002ee4 <xTaskCreate+0x7a>
 8002eb4:	69fb      	ldr	r3, [r7, #28]
 8002eb6:	2200      	movs	r2, #0
 8002eb8:	f883 2059 	strb.w	r2, [r3, #89]	; 0x59
 8002ebc:	88fa      	ldrh	r2, [r7, #6]
 8002ebe:	2300      	movs	r3, #0
 8002ec0:	9303      	str	r3, [sp, #12]
 8002ec2:	69fb      	ldr	r3, [r7, #28]
 8002ec4:	9302      	str	r3, [sp, #8]
 8002ec6:	6afb      	ldr	r3, [r7, #44]	; 0x2c
 8002ec8:	9301      	str	r3, [sp, #4]
 8002eca:	6abb      	ldr	r3, [r7, #40]	; 0x28
 8002ecc:	9300      	str	r3, [sp, #0]
 8002ece:	683b      	ldr	r3, [r7, #0]
 8002ed0:	68b9      	ldr	r1, [r7, #8]
 8002ed2:	68f8      	ldr	r0, [r7, #12]
 8002ed4:	f000 f80e 	bl	8002ef4 <prvInitialiseNewTask>
 8002ed8:	69f8      	ldr	r0, [r7, #28]
 8002eda:	f000 f891 	bl	8003000 <prvAddNewTaskToReadyList>
 8002ede:	2301      	movs	r3, #1
 8002ee0:	61bb      	str	r3, [r7, #24]
 8002ee2:	e002      	b.n	8002eea <xTaskCreate+0x80>
 8002ee4:	f04f 33ff 	mov.w	r3, #4294967295
 8002ee8:	61bb      	str	r3, [r7, #24]
 8002eea:	69bb      	ldr	r3, [r7, #24]
 8002eec:	4618      	mov	r0, r3
 8002eee:	3720      	adds	r7, #32
 8002ef0:	46bd      	mov	sp, r7
 8002ef2:	bd80      	pop	{r7, pc}

08002ef4 <prvInitialiseNewTask>:
 8002ef4:	b580      	push	{r7, lr}
 8002ef6:	b088      	sub	sp, #32
 8002ef8:	af00      	add	r7, sp, #0
 8002efa:	60f8      	str	r0, [r7, #12]
 8002efc:	60b9      	str	r1, [r7, #8]
 8002efe:	607a      	str	r2, [r7, #4]
 8002f00:	603b      	str	r3, [r7, #0]
 8002f02:	6b3b      	ldr	r3, [r7, #48]	; 0x30
 8002f04:	6b18      	ldr	r0, [r3, #48]	; 0x30
 8002f06:	687b      	ldr	r3, [r7, #4]
 8002f08:	009b      	lsls	r3, r3, #2
 8002f0a:	461a      	mov	r2, r3
 8002f0c:	21a5      	movs	r1, #165	; 0xa5
 8002f0e:	f001 fd4a 	bl	80049a6 <memset>
 8002f12:	6b3b      	ldr	r3, [r7, #48]	; 0x30
 8002f14:	6b1a      	ldr	r2, [r3, #48]	; 0x30
 8002f16:	687b      	ldr	r3, [r7, #4]
 8002f18:	f103 4380 	add.w	r3, r3, #1073741824	; 0x40000000
 8002f1c:	3b01      	subs	r3, #1
 8002f1e:	009b      	lsls	r3, r3, #2
 8002f20:	4413      	add	r3, r2
 8002f22:	61bb      	str	r3, [r7, #24]
 8002f24:	69bb      	ldr	r3, [r7, #24]
 8002f26:	f023 0307 	bic.w	r3, r3, #7
 8002f2a:	61bb      	str	r3, [r7, #24]
 8002f2c:	69bb      	ldr	r3, [r7, #24]
 8002f2e:	f003 0307 	and.w	r3, r3, #7
 8002f32:	2b00      	cmp	r3, #0
 8002f34:	d009      	beq.n	8002f4a <prvInitialiseNewTask+0x56>
 8002f36:	f04f 0350 	mov.w	r3, #80	; 0x50
 8002f3a:	f383 8811 	msr	BASEPRI, r3
 8002f3e:	f3bf 8f6f 	isb	sy
 8002f42:	f3bf 8f4f 	dsb	sy
 8002f46:	617b      	str	r3, [r7, #20]
 8002f48:	e7fe      	b.n	8002f48 <prvInitialiseNewTask+0x54>
 8002f4a:	2300      	movs	r3, #0
 8002f4c:	61fb      	str	r3, [r7, #28]
 8002f4e:	e012      	b.n	8002f76 <prvInitialiseNewTask+0x82>
 8002f50:	68ba      	ldr	r2, [r7, #8]
 8002f52:	69fb      	ldr	r3, [r7, #28]
 8002f54:	4413      	add	r3, r2
 8002f56:	7819      	ldrb	r1, [r3, #0]
 8002f58:	6b3a      	ldr	r2, [r7, #48]	; 0x30
 8002f5a:	69fb      	ldr	r3, [r7, #28]
 8002f5c:	4413      	add	r3, r2
 8002f5e:	3334      	adds	r3, #52	; 0x34
 8002f60:	460a      	mov	r2, r1
 8002f62:	701a      	strb	r2, [r3, #0]
 8002f64:	68ba      	ldr	r2, [r7, #8]
 8002f66:	69fb      	ldr	r3, [r7, #28]
 8002f68:	4413      	add	r3, r2
 8002f6a:	781b      	ldrb	r3, [r3, #0]
 8002f6c:	2b00      	cmp	r3, #0
 8002f6e:	d006      	beq.n	8002f7e <prvInitialiseNewTask+0x8a>
 8002f70:	69fb      	ldr	r3, [r7, #28]
 8002f72:	3301      	adds	r3, #1
 8002f74:	61fb      	str	r3, [r7, #28]
 8002f76:	69fb      	ldr	r3, [r7, #28]
 8002f78:	2b0f      	cmp	r3, #15
 8002f7a:	d9e9      	bls.n	8002f50 <prvInitialiseNewTask+0x5c>
 8002f7c:	e000      	b.n	8002f80 <prvInitialiseNewTask+0x8c>
 8002f7e:	bf00      	nop
 8002f80:	6b3b      	ldr	r3, [r7, #48]	; 0x30
 8002f82:	2200      	movs	r2, #0
 8002f84:	f883 2043 	strb.w	r2, [r3, #67]	; 0x43
 8002f88:	6abb      	ldr	r3, [r7, #40]	; 0x28
 8002f8a:	2b37      	cmp	r3, #55	; 0x37
 8002f8c:	d901      	bls.n	8002f92 <prvInitialiseNewTask+0x9e>
 8002f8e:	2337      	movs	r3, #55	; 0x37
 8002f90:	62bb      	str	r3, [r7, #40]	; 0x28
 8002f92:	6b3b      	ldr	r3, [r7, #48]	; 0x30
 8002f94:	6aba      	ldr	r2, [r7, #40]	; 0x28
 8002f96:	62da      	str	r2, [r3, #44]	; 0x2c
 8002f98:	6b3b      	ldr	r3, [r7, #48]	; 0x30
 8002f9a:	6aba      	ldr	r2, [r7, #40]	; 0x28
 8002f9c:	64da      	str	r2, [r3, #76]	; 0x4c
 8002f9e:	6b3b      	ldr	r3, [r7, #48]	; 0x30
 8002fa0:	2200      	movs	r2, #0
 8002fa2:	651a      	str	r2, [r3, #80]	; 0x50
 8002fa4:	6b3b      	ldr	r3, [r7, #48]	; 0x30
 8002fa6:	3304      	adds	r3, #4
 8002fa8:	4618      	mov	r0, r3
 8002faa:	f7ff f946 	bl	800223a <vListInitialiseItem>
 8002fae:	6b3b      	ldr	r3, [r7, #48]	; 0x30
 8002fb0:	3318      	adds	r3, #24
 8002fb2:	4618      	mov	r0, r3
 8002fb4:	f7ff f941 	bl	800223a <vListInitialiseItem>
 8002fb8:	6b3b      	ldr	r3, [r7, #48]	; 0x30
 8002fba:	6b3a      	ldr	r2, [r7, #48]	; 0x30
 8002fbc:	611a      	str	r2, [r3, #16]
 8002fbe:	6abb      	ldr	r3, [r7, #40]	; 0x28
 8002fc0:	f1c3 0238 	rsb	r2, r3, #56	; 0x38
 8002fc4:	6b3b      	ldr	r3, [r7, #48]	; 0x30
 8002fc6:	619a      	str	r2, [r3, #24]
 8002fc8:	6b3b      	ldr	r3, [r7, #48]	; 0x30
 8002fca:	6b3a      	ldr	r2, [r7, #48]	; 0x30
 8002fcc:	625a      	str	r2, [r3, #36]	; 0x24
 8002fce:	6b3b      	ldr	r3, [r7, #48]	; 0x30
 8002fd0:	2200      	movs	r2, #0
 8002fd2:	655a      	str	r2, [r3, #84]	; 0x54
 8002fd4:	6b3b      	ldr	r3, [r7, #48]	; 0x30
 8002fd6:	2200      	movs	r2, #0
 8002fd8:	f883 2058 	strb.w	r2, [r3, #88]	; 0x58
 8002fdc:	683a      	ldr	r2, [r7, #0]
 8002fde:	68f9      	ldr	r1, [r7, #12]
 8002fe0:	69b8      	ldr	r0, [r7, #24]
 8002fe2:	f001 f8f9 	bl	80041d8 <pxPortInitialiseStack>
 8002fe6:	4602      	mov	r2, r0
 8002fe8:	6b3b      	ldr	r3, [r7, #48]	; 0x30
 8002fea:	601a      	str	r2, [r3, #0]
 8002fec:	6afb      	ldr	r3, [r7, #44]	; 0x2c
 8002fee:	2b00      	cmp	r3, #0
 8002ff0:	d002      	beq.n	8002ff8 <prvInitialiseNewTask+0x104>
 8002ff2:	6afb      	ldr	r3, [r7, #44]	; 0x2c
 8002ff4:	6b3a      	ldr	r2, [r7, #48]	; 0x30
 8002ff6:	601a      	str	r2, [r3, #0]
 8002ff8:	bf00      	nop
 8002ffa:	3720      	adds	r7, #32
 8002ffc:	46bd      	mov	sp, r7
 8002ffe:	bd80      	pop	{r7, pc}

08003000 <prvAddNewTaskToReadyList>:
 8003000:	b580      	push	{r7, lr}
 8003002:	b082      	sub	sp, #8
 8003004:	af00      	add	r7, sp, #0
 8003006:	6078      	str	r0, [r7, #4]
 8003008:	f001 f9ce 	bl	80043a8 <vPortEnterCritical>
 800300c:	4b2d      	ldr	r3, [pc, #180]	; (80030c4 <prvAddNewTaskToReadyList+0xc4>)
 800300e:	681b      	ldr	r3, [r3, #0]
 8003010:	3301      	adds	r3, #1
 8003012:	4a2c      	ldr	r2, [pc, #176]	; (80030c4 <prvAddNewTaskToReadyList+0xc4>)
 8003014:	6013      	str	r3, [r2, #0]
 8003016:	4b2c      	ldr	r3, [pc, #176]	; (80030c8 <prvAddNewTaskToReadyList+0xc8>)
 8003018:	681b      	ldr	r3, [r3, #0]
 800301a:	2b00      	cmp	r3, #0
 800301c:	d109      	bne.n	8003032 <prvAddNewTaskToReadyList+0x32>
 800301e:	4a2a      	ldr	r2, [pc, #168]	; (80030c8 <prvAddNewTaskToReadyList+0xc8>)
 8003020:	687b      	ldr	r3, [r7, #4]
 8003022:	6013      	str	r3, [r2, #0]
 8003024:	4b27      	ldr	r3, [pc, #156]	; (80030c4 <prvAddNewTaskToReadyList+0xc4>)
 8003026:	681b      	ldr	r3, [r3, #0]
 8003028:	2b01      	cmp	r3, #1
 800302a:	d110      	bne.n	800304e <prvAddNewTaskToReadyList+0x4e>
 800302c:	f000 fc2e 	bl	800388c <prvInitialiseTaskLists>
 8003030:	e00d      	b.n	800304e <prvAddNewTaskToReadyList+0x4e>
 8003032:	4b26      	ldr	r3, [pc, #152]	; (80030cc <prvAddNewTaskToReadyList+0xcc>)
 8003034:	681b      	ldr	r3, [r3, #0]
 8003036:	2b00      	cmp	r3, #0
 8003038:	d109      	bne.n	800304e <prvAddNewTaskToReadyList+0x4e>
 800303a:	4b23      	ldr	r3, [pc, #140]	; (80030c8 <prvAddNewTaskToReadyList+0xc8>)
 800303c:	681b      	ldr	r3, [r3, #0]
 800303e:	6ada      	ldr	r2, [r3, #44]	; 0x2c
 8003040:	687b      	ldr	r3, [r7, #4]
 8003042:	6adb      	ldr	r3, [r3, #44]	; 0x2c
 8003044:	429a      	cmp	r2, r3
 8003046:	d802      	bhi.n	800304e <prvAddNewTaskToReadyList+0x4e>
 8003048:	4a1f      	ldr	r2, [pc, #124]	; (80030c8 <prvAddNewTaskToReadyList+0xc8>)
 800304a:	687b      	ldr	r3, [r7, #4]
 800304c:	6013      	str	r3, [r2, #0]
 800304e:	4b20      	ldr	r3, [pc, #128]	; (80030d0 <prvAddNewTaskToReadyList+0xd0>)
 8003050:	681b      	ldr	r3, [r3, #0]
 8003052:	3301      	adds	r3, #1
 8003054:	4a1e      	ldr	r2, [pc, #120]	; (80030d0 <prvAddNewTaskToReadyList+0xd0>)
 8003056:	6013      	str	r3, [r2, #0]
 8003058:	4b1d      	ldr	r3, [pc, #116]	; (80030d0 <prvAddNewTaskToReadyList+0xd0>)
 800305a:	681a      	ldr	r2, [r3, #0]
 800305c:	687b      	ldr	r3, [r7, #4]
 800305e:	645a      	str	r2, [r3, #68]	; 0x44
 8003060:	687b      	ldr	r3, [r7, #4]
 8003062:	6ada      	ldr	r2, [r3, #44]	; 0x2c
 8003064:	4b1b      	ldr	r3, [pc, #108]	; (80030d4 <prvAddNewTaskToReadyList+0xd4>)
 8003066:	681b      	ldr	r3, [r3, #0]
 8003068:	429a      	cmp	r2, r3
 800306a:	d903      	bls.n	8003074 <prvAddNewTaskToReadyList+0x74>
 800306c:	687b      	ldr	r3, [r7, #4]
 800306e:	6adb      	ldr	r3, [r3, #44]	; 0x2c
 8003070:	4a18      	ldr	r2, [pc, #96]	; (80030d4 <prvAddNewTaskToReadyList+0xd4>)
 8003072:	6013      	str	r3, [r2, #0]
 8003074:	687b      	ldr	r3, [r7, #4]
 8003076:	6ada      	ldr	r2, [r3, #44]	; 0x2c
 8003078:	4613      	mov	r3, r2
 800307a:	009b      	lsls	r3, r3, #2
 800307c:	4413      	add	r3, r2
 800307e:	009b      	lsls	r3, r3, #2
 8003080:	4a15      	ldr	r2, [pc, #84]	; (80030d8 <prvAddNewTaskToReadyList+0xd8>)
 8003082:	441a      	add	r2, r3
 8003084:	687b      	ldr	r3, [r7, #4]
 8003086:	3304      	adds	r3, #4
 8003088:	4619      	mov	r1, r3
 800308a:	4610      	mov	r0, r2
 800308c:	f7ff f8e1 	bl	8002252 <vListInsertEnd>
 8003090:	f001 f9b8 	bl	8004404 <vPortExitCritical>
 8003094:	4b0d      	ldr	r3, [pc, #52]	; (80030cc <prvAddNewTaskToReadyList+0xcc>)
 8003096:	681b      	ldr	r3, [r3, #0]
 8003098:	2b00      	cmp	r3, #0
 800309a:	d00e      	beq.n	80030ba <prvAddNewTaskToReadyList+0xba>
 800309c:	4b0a      	ldr	r3, [pc, #40]	; (80030c8 <prvAddNewTaskToReadyList+0xc8>)
 800309e:	681b      	ldr	r3, [r3, #0]
 80030a0:	6ada      	ldr	r2, [r3, #44]	; 0x2c
 80030a2:	687b      	ldr	r3, [r7, #4]
 80030a4:	6adb      	ldr	r3, [r3, #44]	; 0x2c
 80030a6:	429a      	cmp	r2, r3
 80030a8:	d207      	bcs.n	80030ba <prvAddNewTaskToReadyList+0xba>
 80030aa:	4b0c      	ldr	r3, [pc, #48]	; (80030dc <prvAddNewTaskToReadyList+0xdc>)
 80030ac:	f04f 5280 	mov.w	r2, #268435456	; 0x10000000
 80030b0:	601a      	str	r2, [r3, #0]
 80030b2:	f3bf 8f4f 	dsb	sy
 80030b6:	f3bf 8f6f 	isb	sy
 80030ba:	bf00      	nop
 80030bc:	3708      	adds	r7, #8
 80030be:	46bd      	mov	sp, r7
 80030c0:	bd80      	pop	{r7, pc}
 80030c2:	bf00      	nop
 80030c4:	20000b38 	.word	0x20000b38
 80030c8:	20000664 	.word	0x20000664
 80030cc:	20000b44 	.word	0x20000b44
 80030d0:	20000b54 	.word	0x20000b54
 80030d4:	20000b40 	.word	0x20000b40
 80030d8:	20000668 	.word	0x20000668
 80030dc:	e000ed04 	.word	0xe000ed04

080030e0 <vTaskDelay>:
 80030e0:	b580      	push	{r7, lr}
 80030e2:	b084      	sub	sp, #16
 80030e4:	af00      	add	r7, sp, #0
 80030e6:	6078      	str	r0, [r7, #4]
 80030e8:	2300      	movs	r3, #0
 80030ea:	60fb      	str	r3, [r7, #12]
 80030ec:	687b      	ldr	r3, [r7, #4]
 80030ee:	2b00      	cmp	r3, #0
 80030f0:	d016      	beq.n	8003120 <vTaskDelay+0x40>
 80030f2:	4b13      	ldr	r3, [pc, #76]	; (8003140 <vTaskDelay+0x60>)
 80030f4:	681b      	ldr	r3, [r3, #0]
 80030f6:	2b00      	cmp	r3, #0
 80030f8:	d009      	beq.n	800310e <vTaskDelay+0x2e>
 80030fa:	f04f 0350 	mov.w	r3, #80	; 0x50
 80030fe:	f383 8811 	msr	BASEPRI, r3
 8003102:	f3bf 8f6f 	isb	sy
 8003106:	f3bf 8f4f 	dsb	sy
 800310a:	60bb      	str	r3, [r7, #8]
 800310c:	e7fe      	b.n	800310c <vTaskDelay+0x2c>
 800310e:	f000 f87f 	bl	8003210 <vTaskSuspendAll>
 8003112:	2100      	movs	r1, #0
 8003114:	6878      	ldr	r0, [r7, #4]
 8003116:	f000 fd01 	bl	8003b1c <prvAddCurrentTaskToDelayedList>
 800311a:	f000 f887 	bl	800322c <xTaskResumeAll>
 800311e:	60f8      	str	r0, [r7, #12]
 8003120:	68fb      	ldr	r3, [r7, #12]
 8003122:	2b00      	cmp	r3, #0
 8003124:	d107      	bne.n	8003136 <vTaskDelay+0x56>
 8003126:	4b07      	ldr	r3, [pc, #28]	; (8003144 <vTaskDelay+0x64>)
 8003128:	f04f 5280 	mov.w	r2, #268435456	; 0x10000000
 800312c:	601a      	str	r2, [r3, #0]
 800312e:	f3bf 8f4f 	dsb	sy
 8003132:	f3bf 8f6f 	isb	sy
 8003136:	bf00      	nop
 8003138:	3710      	adds	r7, #16
 800313a:	46bd      	mov	sp, r7
 800313c:	bd80      	pop	{r7, pc}
 800313e:	bf00      	nop
 8003140:	20000b60 	.word	0x20000b60
 8003144:	e000ed04 	.word	0xe000ed04

08003148 <vTaskStartScheduler>:
 8003148:	b580      	push	{r7, lr}
 800314a:	b08a      	sub	sp, #40	; 0x28
 800314c:	af04      	add	r7, sp, #16
 800314e:	2300      	movs	r3, #0
 8003150:	60bb      	str	r3, [r7, #8]
 8003152:	2300      	movs	r3, #0
 8003154:	607b      	str	r3, [r7, #4]
 8003156:	463a      	mov	r2, r7
 8003158:	1d39      	adds	r1, r7, #4
 800315a:	f107 0308 	add.w	r3, r7, #8
 800315e:	4618      	mov	r0, r3
 8003160:	f7ff f81a 	bl	8002198 <vApplicationGetIdleTaskMemory>
 8003164:	6839      	ldr	r1, [r7, #0]
 8003166:	687b      	ldr	r3, [r7, #4]
 8003168:	68ba      	ldr	r2, [r7, #8]
 800316a:	9202      	str	r2, [sp, #8]
 800316c:	9301      	str	r3, [sp, #4]
 800316e:	2300      	movs	r3, #0
 8003170:	9300      	str	r3, [sp, #0]
 8003172:	2300      	movs	r3, #0
 8003174:	460a      	mov	r2, r1
 8003176:	4920      	ldr	r1, [pc, #128]	; (80031f8 <vTaskStartScheduler+0xb0>)
 8003178:	4820      	ldr	r0, [pc, #128]	; (80031fc <vTaskStartScheduler+0xb4>)
 800317a:	f7ff fe1d 	bl	8002db8 <xTaskCreateStatic>
 800317e:	4602      	mov	r2, r0
 8003180:	4b1f      	ldr	r3, [pc, #124]	; (8003200 <vTaskStartScheduler+0xb8>)
 8003182:	601a      	str	r2, [r3, #0]
 8003184:	4b1e      	ldr	r3, [pc, #120]	; (8003200 <vTaskStartScheduler+0xb8>)
 8003186:	681b      	ldr	r3, [r3, #0]
 8003188:	2b00      	cmp	r3, #0
 800318a:	d002      	beq.n	8003192 <vTaskStartScheduler+0x4a>
 800318c:	2301      	movs	r3, #1
 800318e:	617b      	str	r3, [r7, #20]
 8003190:	e001      	b.n	8003196 <vTaskStartScheduler+0x4e>
 8003192:	2300      	movs	r3, #0
 8003194:	617b      	str	r3, [r7, #20]
 8003196:	697b      	ldr	r3, [r7, #20]
 8003198:	2b01      	cmp	r3, #1
 800319a:	d102      	bne.n	80031a2 <vTaskStartScheduler+0x5a>
 800319c:	f000 fd12 	bl	8003bc4 <xTimerCreateTimerTask>
 80031a0:	6178      	str	r0, [r7, #20]
 80031a2:	697b      	ldr	r3, [r7, #20]
 80031a4:	2b01      	cmp	r3, #1
 80031a6:	d115      	bne.n	80031d4 <vTaskStartScheduler+0x8c>
 80031a8:	f04f 0350 	mov.w	r3, #80	; 0x50
 80031ac:	f383 8811 	msr	BASEPRI, r3
 80031b0:	f3bf 8f6f 	isb	sy
 80031b4:	f3bf 8f4f 	dsb	sy
 80031b8:	613b      	str	r3, [r7, #16]
 80031ba:	4b12      	ldr	r3, [pc, #72]	; (8003204 <vTaskStartScheduler+0xbc>)
 80031bc:	f04f 32ff 	mov.w	r2, #4294967295
 80031c0:	601a      	str	r2, [r3, #0]
 80031c2:	4b11      	ldr	r3, [pc, #68]	; (8003208 <vTaskStartScheduler+0xc0>)
 80031c4:	2201      	movs	r2, #1
 80031c6:	601a      	str	r2, [r3, #0]
 80031c8:	4b10      	ldr	r3, [pc, #64]	; (800320c <vTaskStartScheduler+0xc4>)
 80031ca:	2200      	movs	r2, #0
 80031cc:	601a      	str	r2, [r3, #0]
 80031ce:	f001 f87b 	bl	80042c8 <xPortStartScheduler>
 80031d2:	e00d      	b.n	80031f0 <vTaskStartScheduler+0xa8>
 80031d4:	697b      	ldr	r3, [r7, #20]
 80031d6:	f1b3 3fff 	cmp.w	r3, #4294967295
 80031da:	d109      	bne.n	80031f0 <vTaskStartScheduler+0xa8>
 80031dc:	f04f 0350 	mov.w	r3, #80	; 0x50
 80031e0:	f383 8811 	msr	BASEPRI, r3
 80031e4:	f3bf 8f6f 	isb	sy
 80031e8:	f3bf 8f4f 	dsb	sy
 80031ec:	60fb      	str	r3, [r7, #12]
 80031ee:	e7fe      	b.n	80031ee <vTaskStartScheduler+0xa6>
 80031f0:	bf00      	nop
 80031f2:	3718      	adds	r7, #24
 80031f4:	46bd      	mov	sp, r7
 80031f6:	bd80      	pop	{r7, pc}
 80031f8:	080053a4 	.word	0x080053a4
 80031fc:	0800385d 	.word	0x0800385d
 8003200:	20000b5c 	.word	0x20000b5c
 8003204:	20000b58 	.word	0x20000b58
 8003208:	20000b44 	.word	0x20000b44
 800320c:	20000b3c 	.word	0x20000b3c

08003210 <vTaskSuspendAll>:
 8003210:	b480      	push	{r7}
 8003212:	af00      	add	r7, sp, #0
 8003214:	4b04      	ldr	r3, [pc, #16]	; (8003228 <vTaskSuspendAll+0x18>)
 8003216:	681b      	ldr	r3, [r3, #0]
 8003218:	3301      	adds	r3, #1
 800321a:	4a03      	ldr	r2, [pc, #12]	; (8003228 <vTaskSuspendAll+0x18>)
 800321c:	6013      	str	r3, [r2, #0]
 800321e:	bf00      	nop
 8003220:	46bd      	mov	sp, r7
 8003222:	bc80      	pop	{r7}
 8003224:	4770      	bx	lr
 8003226:	bf00      	nop
 8003228:	20000b60 	.word	0x20000b60

0800322c <xTaskResumeAll>:
 800322c:	b580      	push	{r7, lr}
 800322e:	b084      	sub	sp, #16
 8003230:	af00      	add	r7, sp, #0
 8003232:	2300      	movs	r3, #0
 8003234:	60fb      	str	r3, [r7, #12]
 8003236:	2300      	movs	r3, #0
 8003238:	60bb      	str	r3, [r7, #8]
 800323a:	4b41      	ldr	r3, [pc, #260]	; (8003340 <xTaskResumeAll+0x114>)
 800323c:	681b      	ldr	r3, [r3, #0]
 800323e:	2b00      	cmp	r3, #0
 8003240:	d109      	bne.n	8003256 <xTaskResumeAll+0x2a>
 8003242:	f04f 0350 	mov.w	r3, #80	; 0x50
 8003246:	f383 8811 	msr	BASEPRI, r3
 800324a:	f3bf 8f6f 	isb	sy
 800324e:	f3bf 8f4f 	dsb	sy
 8003252:	603b      	str	r3, [r7, #0]
 8003254:	e7fe      	b.n	8003254 <xTaskResumeAll+0x28>
 8003256:	f001 f8a7 	bl	80043a8 <vPortEnterCritical>
 800325a:	4b39      	ldr	r3, [pc, #228]	; (8003340 <xTaskResumeAll+0x114>)
 800325c:	681b      	ldr	r3, [r3, #0]
 800325e:	3b01      	subs	r3, #1
 8003260:	4a37      	ldr	r2, [pc, #220]	; (8003340 <xTaskResumeAll+0x114>)
 8003262:	6013      	str	r3, [r2, #0]
 8003264:	4b36      	ldr	r3, [pc, #216]	; (8003340 <xTaskResumeAll+0x114>)
 8003266:	681b      	ldr	r3, [r3, #0]
 8003268:	2b00      	cmp	r3, #0
 800326a:	d162      	bne.n	8003332 <xTaskResumeAll+0x106>
 800326c:	4b35      	ldr	r3, [pc, #212]	; (8003344 <xTaskResumeAll+0x118>)
 800326e:	681b      	ldr	r3, [r3, #0]
 8003270:	2b00      	cmp	r3, #0
 8003272:	d05e      	beq.n	8003332 <xTaskResumeAll+0x106>
 8003274:	e02f      	b.n	80032d6 <xTaskResumeAll+0xaa>
 8003276:	4b34      	ldr	r3, [pc, #208]	; (8003348 <xTaskResumeAll+0x11c>)
 8003278:	68db      	ldr	r3, [r3, #12]
 800327a:	68db      	ldr	r3, [r3, #12]
 800327c:	60fb      	str	r3, [r7, #12]
 800327e:	68fb      	ldr	r3, [r7, #12]
 8003280:	3318      	adds	r3, #24
 8003282:	4618      	mov	r0, r3
 8003284:	f7ff f840 	bl	8002308 <uxListRemove>
 8003288:	68fb      	ldr	r3, [r7, #12]
 800328a:	3304      	adds	r3, #4
 800328c:	4618      	mov	r0, r3
 800328e:	f7ff f83b 	bl	8002308 <uxListRemove>
 8003292:	68fb      	ldr	r3, [r7, #12]
 8003294:	6ada      	ldr	r2, [r3, #44]	; 0x2c
 8003296:	4b2d      	ldr	r3, [pc, #180]	; (800334c <xTaskResumeAll+0x120>)
 8003298:	681b      	ldr	r3, [r3, #0]
 800329a:	429a      	cmp	r2, r3
 800329c:	d903      	bls.n	80032a6 <xTaskResumeAll+0x7a>
 800329e:	68fb      	ldr	r3, [r7, #12]
 80032a0:	6adb      	ldr	r3, [r3, #44]	; 0x2c
 80032a2:	4a2a      	ldr	r2, [pc, #168]	; (800334c <xTaskResumeAll+0x120>)
 80032a4:	6013      	str	r3, [r2, #0]
 80032a6:	68fb      	ldr	r3, [r7, #12]
 80032a8:	6ada      	ldr	r2, [r3, #44]	; 0x2c
 80032aa:	4613      	mov	r3, r2
 80032ac:	009b      	lsls	r3, r3, #2
 80032ae:	4413      	add	r3, r2
 80032b0:	009b      	lsls	r3, r3, #2
 80032b2:	4a27      	ldr	r2, [pc, #156]	; (8003350 <xTaskResumeAll+0x124>)
 80032b4:	441a      	add	r2, r3
 80032b6:	68fb      	ldr	r3, [r7, #12]
 80032b8:	3304      	adds	r3, #4
 80032ba:	4619      	mov	r1, r3
 80032bc:	4610      	mov	r0, r2
 80032be:	f7fe ffc8 	bl	8002252 <vListInsertEnd>
 80032c2:	68fb      	ldr	r3, [r7, #12]
 80032c4:	6ada      	ldr	r2, [r3, #44]	; 0x2c
 80032c6:	4b23      	ldr	r3, [pc, #140]	; (8003354 <xTaskResumeAll+0x128>)
 80032c8:	681b      	ldr	r3, [r3, #0]
 80032ca:	6adb      	ldr	r3, [r3, #44]	; 0x2c
 80032cc:	429a      	cmp	r2, r3
 80032ce:	d302      	bcc.n	80032d6 <xTaskResumeAll+0xaa>
 80032d0:	4b21      	ldr	r3, [pc, #132]	; (8003358 <xTaskResumeAll+0x12c>)
 80032d2:	2201      	movs	r2, #1
 80032d4:	601a      	str	r2, [r3, #0]
 80032d6:	4b1c      	ldr	r3, [pc, #112]	; (8003348 <xTaskResumeAll+0x11c>)
 80032d8:	681b      	ldr	r3, [r3, #0]
 80032da:	2b00      	cmp	r3, #0
 80032dc:	d1cb      	bne.n	8003276 <xTaskResumeAll+0x4a>
 80032de:	68fb      	ldr	r3, [r7, #12]
 80032e0:	2b00      	cmp	r3, #0
 80032e2:	d001      	beq.n	80032e8 <xTaskResumeAll+0xbc>
 80032e4:	f000 fb6c 	bl	80039c0 <prvResetNextTaskUnblockTime>
 80032e8:	4b1c      	ldr	r3, [pc, #112]	; (800335c <xTaskResumeAll+0x130>)
 80032ea:	681b      	ldr	r3, [r3, #0]
 80032ec:	607b      	str	r3, [r7, #4]
 80032ee:	687b      	ldr	r3, [r7, #4]
 80032f0:	2b00      	cmp	r3, #0
 80032f2:	d010      	beq.n	8003316 <xTaskResumeAll+0xea>
 80032f4:	f000 f866 	bl	80033c4 <xTaskIncrementTick>
 80032f8:	4603      	mov	r3, r0
 80032fa:	2b00      	cmp	r3, #0
 80032fc:	d002      	beq.n	8003304 <xTaskResumeAll+0xd8>
 80032fe:	4b16      	ldr	r3, [pc, #88]	; (8003358 <xTaskResumeAll+0x12c>)
 8003300:	2201      	movs	r2, #1
 8003302:	601a      	str	r2, [r3, #0]
 8003304:	687b      	ldr	r3, [r7, #4]
 8003306:	3b01      	subs	r3, #1
 8003308:	607b      	str	r3, [r7, #4]
 800330a:	687b      	ldr	r3, [r7, #4]
 800330c:	2b00      	cmp	r3, #0
 800330e:	d1f1      	bne.n	80032f4 <xTaskResumeAll+0xc8>
 8003310:	4b12      	ldr	r3, [pc, #72]	; (800335c <xTaskResumeAll+0x130>)
 8003312:	2200      	movs	r2, #0
 8003314:	601a      	str	r2, [r3, #0]
 8003316:	4b10      	ldr	r3, [pc, #64]	; (8003358 <xTaskResumeAll+0x12c>)
 8003318:	681b      	ldr	r3, [r3, #0]
 800331a:	2b00      	cmp	r3, #0
 800331c:	d009      	beq.n	8003332 <xTaskResumeAll+0x106>
 800331e:	2301      	movs	r3, #1
 8003320:	60bb      	str	r3, [r7, #8]
 8003322:	4b0f      	ldr	r3, [pc, #60]	; (8003360 <xTaskResumeAll+0x134>)
 8003324:	f04f 5280 	mov.w	r2, #268435456	; 0x10000000
 8003328:	601a      	str	r2, [r3, #0]
 800332a:	f3bf 8f4f 	dsb	sy
 800332e:	f3bf 8f6f 	isb	sy
 8003332:	f001 f867 	bl	8004404 <vPortExitCritical>
 8003336:	68bb      	ldr	r3, [r7, #8]
 8003338:	4618      	mov	r0, r3
 800333a:	3710      	adds	r7, #16
 800333c:	46bd      	mov	sp, r7
 800333e:	bd80      	pop	{r7, pc}
 8003340:	20000b60 	.word	0x20000b60
 8003344:	20000b38 	.word	0x20000b38
 8003348:	20000af8 	.word	0x20000af8
 800334c:	20000b40 	.word	0x20000b40
 8003350:	20000668 	.word	0x20000668
 8003354:	20000664 	.word	0x20000664
 8003358:	20000b4c 	.word	0x20000b4c
 800335c:	20000b48 	.word	0x20000b48
 8003360:	e000ed04 	.word	0xe000ed04

08003364 <xTaskGetTickCount>:
 8003364:	b480      	push	{r7}
 8003366:	b083      	sub	sp, #12
 8003368:	af00      	add	r7, sp, #0
 800336a:	4b04      	ldr	r3, [pc, #16]	; (800337c <xTaskGetTickCount+0x18>)
 800336c:	681b      	ldr	r3, [r3, #0]
 800336e:	607b      	str	r3, [r7, #4]
 8003370:	687b      	ldr	r3, [r7, #4]
 8003372:	4618      	mov	r0, r3
 8003374:	370c      	adds	r7, #12
 8003376:	46bd      	mov	sp, r7
 8003378:	bc80      	pop	{r7}
 800337a:	4770      	bx	lr
 800337c:	20000b3c 	.word	0x20000b3c

08003380 <pcTaskGetName>:
 8003380:	b480      	push	{r7}
 8003382:	b085      	sub	sp, #20
 8003384:	af00      	add	r7, sp, #0
 8003386:	6078      	str	r0, [r7, #4]
 8003388:	687b      	ldr	r3, [r7, #4]
 800338a:	2b00      	cmp	r3, #0
 800338c:	d102      	bne.n	8003394 <pcTaskGetName+0x14>
 800338e:	4b0c      	ldr	r3, [pc, #48]	; (80033c0 <pcTaskGetName+0x40>)
 8003390:	681b      	ldr	r3, [r3, #0]
 8003392:	e000      	b.n	8003396 <pcTaskGetName+0x16>
 8003394:	687b      	ldr	r3, [r7, #4]
 8003396:	60fb      	str	r3, [r7, #12]
 8003398:	68fb      	ldr	r3, [r7, #12]
 800339a:	2b00      	cmp	r3, #0
 800339c:	d109      	bne.n	80033b2 <pcTaskGetName+0x32>
 800339e:	f04f 0350 	mov.w	r3, #80	; 0x50
 80033a2:	f383 8811 	msr	BASEPRI, r3
 80033a6:	f3bf 8f6f 	isb	sy
 80033aa:	f3bf 8f4f 	dsb	sy
 80033ae:	60bb      	str	r3, [r7, #8]
 80033b0:	e7fe      	b.n	80033b0 <pcTaskGetName+0x30>
 80033b2:	68fb      	ldr	r3, [r7, #12]
 80033b4:	3334      	adds	r3, #52	; 0x34
 80033b6:	4618      	mov	r0, r3
 80033b8:	3714      	adds	r7, #20
 80033ba:	46bd      	mov	sp, r7
 80033bc:	bc80      	pop	{r7}
 80033be:	4770      	bx	lr
 80033c0:	20000664 	.word	0x20000664

080033c4 <xTaskIncrementTick>:
 80033c4:	b580      	push	{r7, lr}
 80033c6:	b086      	sub	sp, #24
 80033c8:	af00      	add	r7, sp, #0
 80033ca:	2300      	movs	r3, #0
 80033cc:	617b      	str	r3, [r7, #20]
 80033ce:	4b51      	ldr	r3, [pc, #324]	; (8003514 <xTaskIncrementTick+0x150>)
 80033d0:	681b      	ldr	r3, [r3, #0]
 80033d2:	2b00      	cmp	r3, #0
 80033d4:	f040 808d 	bne.w	80034f2 <xTaskIncrementTick+0x12e>
 80033d8:	4b4f      	ldr	r3, [pc, #316]	; (8003518 <xTaskIncrementTick+0x154>)
 80033da:	681b      	ldr	r3, [r3, #0]
 80033dc:	3301      	adds	r3, #1
 80033de:	613b      	str	r3, [r7, #16]
 80033e0:	4a4d      	ldr	r2, [pc, #308]	; (8003518 <xTaskIncrementTick+0x154>)
 80033e2:	693b      	ldr	r3, [r7, #16]
 80033e4:	6013      	str	r3, [r2, #0]
 80033e6:	693b      	ldr	r3, [r7, #16]
 80033e8:	2b00      	cmp	r3, #0
 80033ea:	d11f      	bne.n	800342c <xTaskIncrementTick+0x68>
 80033ec:	4b4b      	ldr	r3, [pc, #300]	; (800351c <xTaskIncrementTick+0x158>)
 80033ee:	681b      	ldr	r3, [r3, #0]
 80033f0:	681b      	ldr	r3, [r3, #0]
 80033f2:	2b00      	cmp	r3, #0
 80033f4:	d009      	beq.n	800340a <xTaskIncrementTick+0x46>
 80033f6:	f04f 0350 	mov.w	r3, #80	; 0x50
 80033fa:	f383 8811 	msr	BASEPRI, r3
 80033fe:	f3bf 8f6f 	isb	sy
 8003402:	f3bf 8f4f 	dsb	sy
 8003406:	603b      	str	r3, [r7, #0]
 8003408:	e7fe      	b.n	8003408 <xTaskIncrementTick+0x44>
 800340a:	4b44      	ldr	r3, [pc, #272]	; (800351c <xTaskIncrementTick+0x158>)
 800340c:	681b      	ldr	r3, [r3, #0]
 800340e:	60fb      	str	r3, [r7, #12]
 8003410:	4b43      	ldr	r3, [pc, #268]	; (8003520 <xTaskIncrementTick+0x15c>)
 8003412:	681b      	ldr	r3, [r3, #0]
 8003414:	4a41      	ldr	r2, [pc, #260]	; (800351c <xTaskIncrementTick+0x158>)
 8003416:	6013      	str	r3, [r2, #0]
 8003418:	4a41      	ldr	r2, [pc, #260]	; (8003520 <xTaskIncrementTick+0x15c>)
 800341a:	68fb      	ldr	r3, [r7, #12]
 800341c:	6013      	str	r3, [r2, #0]
 800341e:	4b41      	ldr	r3, [pc, #260]	; (8003524 <xTaskIncrementTick+0x160>)
 8003420:	681b      	ldr	r3, [r3, #0]
 8003422:	3301      	adds	r3, #1
 8003424:	4a3f      	ldr	r2, [pc, #252]	; (8003524 <xTaskIncrementTick+0x160>)
 8003426:	6013      	str	r3, [r2, #0]
 8003428:	f000 faca 	bl	80039c0 <prvResetNextTaskUnblockTime>
 800342c:	4b3e      	ldr	r3, [pc, #248]	; (8003528 <xTaskIncrementTick+0x164>)
 800342e:	681b      	ldr	r3, [r3, #0]
 8003430:	693a      	ldr	r2, [r7, #16]
 8003432:	429a      	cmp	r2, r3
 8003434:	d34e      	bcc.n	80034d4 <xTaskIncrementTick+0x110>
 8003436:	4b39      	ldr	r3, [pc, #228]	; (800351c <xTaskIncrementTick+0x158>)
 8003438:	681b      	ldr	r3, [r3, #0]
 800343a:	681b      	ldr	r3, [r3, #0]
 800343c:	2b00      	cmp	r3, #0
 800343e:	d101      	bne.n	8003444 <xTaskIncrementTick+0x80>
 8003440:	2301      	movs	r3, #1
 8003442:	e000      	b.n	8003446 <xTaskIncrementTick+0x82>
 8003444:	2300      	movs	r3, #0
 8003446:	2b00      	cmp	r3, #0
 8003448:	d004      	beq.n	8003454 <xTaskIncrementTick+0x90>
 800344a:	4b37      	ldr	r3, [pc, #220]	; (8003528 <xTaskIncrementTick+0x164>)
 800344c:	f04f 32ff 	mov.w	r2, #4294967295
 8003450:	601a      	str	r2, [r3, #0]
 8003452:	e03f      	b.n	80034d4 <xTaskIncrementTick+0x110>
 8003454:	4b31      	ldr	r3, [pc, #196]	; (800351c <xTaskIncrementTick+0x158>)
 8003456:	681b      	ldr	r3, [r3, #0]
 8003458:	68db      	ldr	r3, [r3, #12]
 800345a:	68db      	ldr	r3, [r3, #12]
 800345c:	60bb      	str	r3, [r7, #8]
 800345e:	68bb      	ldr	r3, [r7, #8]
 8003460:	685b      	ldr	r3, [r3, #4]
 8003462:	607b      	str	r3, [r7, #4]
 8003464:	693a      	ldr	r2, [r7, #16]
 8003466:	687b      	ldr	r3, [r7, #4]
 8003468:	429a      	cmp	r2, r3
 800346a:	d203      	bcs.n	8003474 <xTaskIncrementTick+0xb0>
 800346c:	4a2e      	ldr	r2, [pc, #184]	; (8003528 <xTaskIncrementTick+0x164>)
 800346e:	687b      	ldr	r3, [r7, #4]
 8003470:	6013      	str	r3, [r2, #0]
 8003472:	e02f      	b.n	80034d4 <xTaskIncrementTick+0x110>
 8003474:	68bb      	ldr	r3, [r7, #8]
 8003476:	3304      	adds	r3, #4
 8003478:	4618      	mov	r0, r3
 800347a:	f7fe ff45 	bl	8002308 <uxListRemove>
 800347e:	68bb      	ldr	r3, [r7, #8]
 8003480:	6a9b      	ldr	r3, [r3, #40]	; 0x28
 8003482:	2b00      	cmp	r3, #0
 8003484:	d004      	beq.n	8003490 <xTaskIncrementTick+0xcc>
 8003486:	68bb      	ldr	r3, [r7, #8]
 8003488:	3318      	adds	r3, #24
 800348a:	4618      	mov	r0, r3
 800348c:	f7fe ff3c 	bl	8002308 <uxListRemove>
 8003490:	68bb      	ldr	r3, [r7, #8]
 8003492:	6ada      	ldr	r2, [r3, #44]	; 0x2c
 8003494:	4b25      	ldr	r3, [pc, #148]	; (800352c <xTaskIncrementTick+0x168>)
 8003496:	681b      	ldr	r3, [r3, #0]
 8003498:	429a      	cmp	r2, r3
 800349a:	d903      	bls.n	80034a4 <xTaskIncrementTick+0xe0>
 800349c:	68bb      	ldr	r3, [r7, #8]
 800349e:	6adb      	ldr	r3, [r3, #44]	; 0x2c
 80034a0:	4a22      	ldr	r2, [pc, #136]	; (800352c <xTaskIncrementTick+0x168>)
 80034a2:	6013      	str	r3, [r2, #0]
 80034a4:	68bb      	ldr	r3, [r7, #8]
 80034a6:	6ada      	ldr	r2, [r3, #44]	; 0x2c
 80034a8:	4613      	mov	r3, r2
 80034aa:	009b      	lsls	r3, r3, #2
 80034ac:	4413      	add	r3, r2
 80034ae:	009b      	lsls	r3, r3, #2
 80034b0:	4a1f      	ldr	r2, [pc, #124]	; (8003530 <xTaskIncrementTick+0x16c>)
 80034b2:	441a      	add	r2, r3
 80034b4:	68bb      	ldr	r3, [r7, #8]
 80034b6:	3304      	adds	r3, #4
 80034b8:	4619      	mov	r1, r3
 80034ba:	4610      	mov	r0, r2
 80034bc:	f7fe fec9 	bl	8002252 <vListInsertEnd>
 80034c0:	68bb      	ldr	r3, [r7, #8]
 80034c2:	6ada      	ldr	r2, [r3, #44]	; 0x2c
 80034c4:	4b1b      	ldr	r3, [pc, #108]	; (8003534 <xTaskIncrementTick+0x170>)
 80034c6:	681b      	ldr	r3, [r3, #0]
 80034c8:	6adb      	ldr	r3, [r3, #44]	; 0x2c
 80034ca:	429a      	cmp	r2, r3
 80034cc:	d3b3      	bcc.n	8003436 <xTaskIncrementTick+0x72>
 80034ce:	2301      	movs	r3, #1
 80034d0:	617b      	str	r3, [r7, #20]
 80034d2:	e7b0      	b.n	8003436 <xTaskIncrementTick+0x72>
 80034d4:	4b17      	ldr	r3, [pc, #92]	; (8003534 <xTaskIncrementTick+0x170>)
 80034d6:	681b      	ldr	r3, [r3, #0]
 80034d8:	6ada      	ldr	r2, [r3, #44]	; 0x2c
 80034da:	4915      	ldr	r1, [pc, #84]	; (8003530 <xTaskIncrementTick+0x16c>)
 80034dc:	4613      	mov	r3, r2
 80034de:	009b      	lsls	r3, r3, #2
 80034e0:	4413      	add	r3, r2
 80034e2:	009b      	lsls	r3, r3, #2
 80034e4:	440b      	add	r3, r1
 80034e6:	681b      	ldr	r3, [r3, #0]
 80034e8:	2b01      	cmp	r3, #1
 80034ea:	d907      	bls.n	80034fc <xTaskIncrementTick+0x138>
 80034ec:	2301      	movs	r3, #1
 80034ee:	617b      	str	r3, [r7, #20]
 80034f0:	e004      	b.n	80034fc <xTaskIncrementTick+0x138>
 80034f2:	4b11      	ldr	r3, [pc, #68]	; (8003538 <xTaskIncrementTick+0x174>)
 80034f4:	681b      	ldr	r3, [r3, #0]
 80034f6:	3301      	adds	r3, #1
 80034f8:	4a0f      	ldr	r2, [pc, #60]	; (8003538 <xTaskIncrementTick+0x174>)
 80034fa:	6013      	str	r3, [r2, #0]
 80034fc:	4b0f      	ldr	r3, [pc, #60]	; (800353c <xTaskIncrementTick+0x178>)
 80034fe:	681b      	ldr	r3, [r3, #0]
 8003500:	2b00      	cmp	r3, #0
 8003502:	d001      	beq.n	8003508 <xTaskIncrementTick+0x144>
 8003504:	2301      	movs	r3, #1
 8003506:	617b      	str	r3, [r7, #20]
 8003508:	697b      	ldr	r3, [r7, #20]
 800350a:	4618      	mov	r0, r3
 800350c:	3718      	adds	r7, #24
 800350e:	46bd      	mov	sp, r7
 8003510:	bd80      	pop	{r7, pc}
 8003512:	bf00      	nop
 8003514:	20000b60 	.word	0x20000b60
 8003518:	20000b3c 	.word	0x20000b3c
 800351c:	20000af0 	.word	0x20000af0
 8003520:	20000af4 	.word	0x20000af4
 8003524:	20000b50 	.word	0x20000b50
 8003528:	20000b58 	.word	0x20000b58
 800352c:	20000b40 	.word	0x20000b40
 8003530:	20000668 	.word	0x20000668
 8003534:	20000664 	.word	0x20000664
 8003538:	20000b48 	.word	0x20000b48
 800353c:	20000b4c 	.word	0x20000b4c

08003540 <vTaskSwitchContext>:
 8003540:	b480      	push	{r7}
 8003542:	b085      	sub	sp, #20
 8003544:	af00      	add	r7, sp, #0
 8003546:	4b27      	ldr	r3, [pc, #156]	; (80035e4 <vTaskSwitchContext+0xa4>)
 8003548:	681b      	ldr	r3, [r3, #0]
 800354a:	2b00      	cmp	r3, #0
 800354c:	d003      	beq.n	8003556 <vTaskSwitchContext+0x16>
 800354e:	4b26      	ldr	r3, [pc, #152]	; (80035e8 <vTaskSwitchContext+0xa8>)
 8003550:	2201      	movs	r2, #1
 8003552:	601a      	str	r2, [r3, #0]
 8003554:	e040      	b.n	80035d8 <vTaskSwitchContext+0x98>
 8003556:	4b24      	ldr	r3, [pc, #144]	; (80035e8 <vTaskSwitchContext+0xa8>)
 8003558:	2200      	movs	r2, #0
 800355a:	601a      	str	r2, [r3, #0]
 800355c:	4b23      	ldr	r3, [pc, #140]	; (80035ec <vTaskSwitchContext+0xac>)
 800355e:	681b      	ldr	r3, [r3, #0]
 8003560:	60fb      	str	r3, [r7, #12]
 8003562:	e00f      	b.n	8003584 <vTaskSwitchContext+0x44>
 8003564:	68fb      	ldr	r3, [r7, #12]
 8003566:	2b00      	cmp	r3, #0
 8003568:	d109      	bne.n	800357e <vTaskSwitchContext+0x3e>
 800356a:	f04f 0350 	mov.w	r3, #80	; 0x50
 800356e:	f383 8811 	msr	BASEPRI, r3
 8003572:	f3bf 8f6f 	isb	sy
 8003576:	f3bf 8f4f 	dsb	sy
 800357a:	607b      	str	r3, [r7, #4]
 800357c:	e7fe      	b.n	800357c <vTaskSwitchContext+0x3c>
 800357e:	68fb      	ldr	r3, [r7, #12]
 8003580:	3b01      	subs	r3, #1
 8003582:	60fb      	str	r3, [r7, #12]
 8003584:	491a      	ldr	r1, [pc, #104]	; (80035f0 <vTaskSwitchContext+0xb0>)
 8003586:	68fa      	ldr	r2, [r7, #12]
 8003588:	4613      	mov	r3, r2
 800358a:	009b      	lsls	r3, r3, #2
 800358c:	4413      	add	r3, r2
 800358e:	009b      	lsls	r3, r3, #2
 8003590:	440b      	add	r3, r1
 8003592:	681b      	ldr	r3, [r3, #0]
 8003594:	2b00      	cmp	r3, #0
 8003596:	d0e5      	beq.n	8003564 <vTaskSwitchContext+0x24>
 8003598:	68fa      	ldr	r2, [r7, #12]
 800359a:	4613      	mov	r3, r2
 800359c:	009b      	lsls	r3, r3, #2
 800359e:	4413      	add	r3, r2
 80035a0:	009b      	lsls	r3, r3, #2
 80035a2:	4a13      	ldr	r2, [pc, #76]	; (80035f0 <vTaskSwitchContext+0xb0>)
 80035a4:	4413      	add	r3, r2
 80035a6:	60bb      	str	r3, [r7, #8]
 80035a8:	68bb      	ldr	r3, [r7, #8]
 80035aa:	685b      	ldr	r3, [r3, #4]
 80035ac:	685a      	ldr	r2, [r3, #4]
 80035ae:	68bb      	ldr	r3, [r7, #8]
 80035b0:	605a      	str	r2, [r3, #4]
 80035b2:	68bb      	ldr	r3, [r7, #8]
 80035b4:	685a      	ldr	r2, [r3, #4]
 80035b6:	68bb      	ldr	r3, [r7, #8]
 80035b8:	3308      	adds	r3, #8
 80035ba:	429a      	cmp	r2, r3
 80035bc:	d104      	bne.n	80035c8 <vTaskSwitchContext+0x88>
 80035be:	68bb      	ldr	r3, [r7, #8]
 80035c0:	685b      	ldr	r3, [r3, #4]
 80035c2:	685a      	ldr	r2, [r3, #4]
 80035c4:	68bb      	ldr	r3, [r7, #8]
 80035c6:	605a      	str	r2, [r3, #4]
 80035c8:	68bb      	ldr	r3, [r7, #8]
 80035ca:	685b      	ldr	r3, [r3, #4]
 80035cc:	68db      	ldr	r3, [r3, #12]
 80035ce:	4a09      	ldr	r2, [pc, #36]	; (80035f4 <vTaskSwitchContext+0xb4>)
 80035d0:	6013      	str	r3, [r2, #0]
 80035d2:	4a06      	ldr	r2, [pc, #24]	; (80035ec <vTaskSwitchContext+0xac>)
 80035d4:	68fb      	ldr	r3, [r7, #12]
 80035d6:	6013      	str	r3, [r2, #0]
 80035d8:	bf00      	nop
 80035da:	3714      	adds	r7, #20
 80035dc:	46bd      	mov	sp, r7
 80035de:	bc80      	pop	{r7}
 80035e0:	4770      	bx	lr
 80035e2:	bf00      	nop
 80035e4:	20000b60 	.word	0x20000b60
 80035e8:	20000b4c 	.word	0x20000b4c
 80035ec:	20000b40 	.word	0x20000b40
 80035f0:	20000668 	.word	0x20000668
 80035f4:	20000664 	.word	0x20000664

080035f8 <vTaskPlaceOnEventList>:
 80035f8:	b580      	push	{r7, lr}
 80035fa:	b084      	sub	sp, #16
 80035fc:	af00      	add	r7, sp, #0
 80035fe:	6078      	str	r0, [r7, #4]
 8003600:	6039      	str	r1, [r7, #0]
 8003602:	687b      	ldr	r3, [r7, #4]
 8003604:	2b00      	cmp	r3, #0
 8003606:	d109      	bne.n	800361c <vTaskPlaceOnEventList+0x24>
 8003608:	f04f 0350 	mov.w	r3, #80	; 0x50
 800360c:	f383 8811 	msr	BASEPRI, r3
 8003610:	f3bf 8f6f 	isb	sy
 8003614:	f3bf 8f4f 	dsb	sy
 8003618:	60fb      	str	r3, [r7, #12]
 800361a:	e7fe      	b.n	800361a <vTaskPlaceOnEventList+0x22>
 800361c:	4b07      	ldr	r3, [pc, #28]	; (800363c <vTaskPlaceOnEventList+0x44>)
 800361e:	681b      	ldr	r3, [r3, #0]
 8003620:	3318      	adds	r3, #24
 8003622:	4619      	mov	r1, r3
 8003624:	6878      	ldr	r0, [r7, #4]
 8003626:	f7fe fe37 	bl	8002298 <vListInsert>
 800362a:	2101      	movs	r1, #1
 800362c:	6838      	ldr	r0, [r7, #0]
 800362e:	f000 fa75 	bl	8003b1c <prvAddCurrentTaskToDelayedList>
 8003632:	bf00      	nop
 8003634:	3710      	adds	r7, #16
 8003636:	46bd      	mov	sp, r7
 8003638:	bd80      	pop	{r7, pc}
 800363a:	bf00      	nop
 800363c:	20000664 	.word	0x20000664

08003640 <vTaskPlaceOnEventListRestricted>:
 8003640:	b580      	push	{r7, lr}
 8003642:	b086      	sub	sp, #24
 8003644:	af00      	add	r7, sp, #0
 8003646:	60f8      	str	r0, [r7, #12]
 8003648:	60b9      	str	r1, [r7, #8]
 800364a:	607a      	str	r2, [r7, #4]
 800364c:	68fb      	ldr	r3, [r7, #12]
 800364e:	2b00      	cmp	r3, #0
 8003650:	d109      	bne.n	8003666 <vTaskPlaceOnEventListRestricted+0x26>
 8003652:	f04f 0350 	mov.w	r3, #80	; 0x50
 8003656:	f383 8811 	msr	BASEPRI, r3
 800365a:	f3bf 8f6f 	isb	sy
 800365e:	f3bf 8f4f 	dsb	sy
 8003662:	617b      	str	r3, [r7, #20]
 8003664:	e7fe      	b.n	8003664 <vTaskPlaceOnEventListRestricted+0x24>
 8003666:	4b0a      	ldr	r3, [pc, #40]	; (8003690 <vTaskPlaceOnEventListRestricted+0x50>)
 8003668:	681b      	ldr	r3, [r3, #0]
 800366a:	3318      	adds	r3, #24
 800366c:	4619      	mov	r1, r3
 800366e:	68f8      	ldr	r0, [r7, #12]
 8003670:	f7fe fdef 	bl	8002252 <vListInsertEnd>
 8003674:	687b      	ldr	r3, [r7, #4]
 8003676:	2b00      	cmp	r3, #0
 8003678:	d002      	beq.n	8003680 <vTaskPlaceOnEventListRestricted+0x40>
 800367a:	f04f 33ff 	mov.w	r3, #4294967295
 800367e:	60bb      	str	r3, [r7, #8]
 8003680:	6879      	ldr	r1, [r7, #4]
 8003682:	68b8      	ldr	r0, [r7, #8]
 8003684:	f000 fa4a 	bl	8003b1c <prvAddCurrentTaskToDelayedList>
 8003688:	bf00      	nop
 800368a:	3718      	adds	r7, #24
 800368c:	46bd      	mov	sp, r7
 800368e:	bd80      	pop	{r7, pc}
 8003690:	20000664 	.word	0x20000664

08003694 <xTaskRemoveFromEventList>:
 8003694:	b580      	push	{r7, lr}
 8003696:	b086      	sub	sp, #24
 8003698:	af00      	add	r7, sp, #0
 800369a:	6078      	str	r0, [r7, #4]
 800369c:	687b      	ldr	r3, [r7, #4]
 800369e:	68db      	ldr	r3, [r3, #12]
 80036a0:	68db      	ldr	r3, [r3, #12]
 80036a2:	613b      	str	r3, [r7, #16]
 80036a4:	693b      	ldr	r3, [r7, #16]
 80036a6:	2b00      	cmp	r3, #0
 80036a8:	d109      	bne.n	80036be <xTaskRemoveFromEventList+0x2a>
 80036aa:	f04f 0350 	mov.w	r3, #80	; 0x50
 80036ae:	f383 8811 	msr	BASEPRI, r3
 80036b2:	f3bf 8f6f 	isb	sy
 80036b6:	f3bf 8f4f 	dsb	sy
 80036ba:	60fb      	str	r3, [r7, #12]
 80036bc:	e7fe      	b.n	80036bc <xTaskRemoveFromEventList+0x28>
 80036be:	693b      	ldr	r3, [r7, #16]
 80036c0:	3318      	adds	r3, #24
 80036c2:	4618      	mov	r0, r3
 80036c4:	f7fe fe20 	bl	8002308 <uxListRemove>
 80036c8:	4b1d      	ldr	r3, [pc, #116]	; (8003740 <xTaskRemoveFromEventList+0xac>)
 80036ca:	681b      	ldr	r3, [r3, #0]
 80036cc:	2b00      	cmp	r3, #0
 80036ce:	d11d      	bne.n	800370c <xTaskRemoveFromEventList+0x78>
 80036d0:	693b      	ldr	r3, [r7, #16]
 80036d2:	3304      	adds	r3, #4
 80036d4:	4618      	mov	r0, r3
 80036d6:	f7fe fe17 	bl	8002308 <uxListRemove>
 80036da:	693b      	ldr	r3, [r7, #16]
 80036dc:	6ada      	ldr	r2, [r3, #44]	; 0x2c
 80036de:	4b19      	ldr	r3, [pc, #100]	; (8003744 <xTaskRemoveFromEventList+0xb0>)
 80036e0:	681b      	ldr	r3, [r3, #0]
 80036e2:	429a      	cmp	r2, r3
 80036e4:	d903      	bls.n	80036ee <xTaskRemoveFromEventList+0x5a>
 80036e6:	693b      	ldr	r3, [r7, #16]
 80036e8:	6adb      	ldr	r3, [r3, #44]	; 0x2c
 80036ea:	4a16      	ldr	r2, [pc, #88]	; (8003744 <xTaskRemoveFromEventList+0xb0>)
 80036ec:	6013      	str	r3, [r2, #0]
 80036ee:	693b      	ldr	r3, [r7, #16]
 80036f0:	6ada      	ldr	r2, [r3, #44]	; 0x2c
 80036f2:	4613      	mov	r3, r2
 80036f4:	009b      	lsls	r3, r3, #2
 80036f6:	4413      	add	r3, r2
 80036f8:	009b      	lsls	r3, r3, #2
 80036fa:	4a13      	ldr	r2, [pc, #76]	; (8003748 <xTaskRemoveFromEventList+0xb4>)
 80036fc:	441a      	add	r2, r3
 80036fe:	693b      	ldr	r3, [r7, #16]
 8003700:	3304      	adds	r3, #4
 8003702:	4619      	mov	r1, r3
 8003704:	4610      	mov	r0, r2
 8003706:	f7fe fda4 	bl	8002252 <vListInsertEnd>
 800370a:	e005      	b.n	8003718 <xTaskRemoveFromEventList+0x84>
 800370c:	693b      	ldr	r3, [r7, #16]
 800370e:	3318      	adds	r3, #24
 8003710:	4619      	mov	r1, r3
 8003712:	480e      	ldr	r0, [pc, #56]	; (800374c <xTaskRemoveFromEventList+0xb8>)
 8003714:	f7fe fd9d 	bl	8002252 <vListInsertEnd>
 8003718:	693b      	ldr	r3, [r7, #16]
 800371a:	6ada      	ldr	r2, [r3, #44]	; 0x2c
 800371c:	4b0c      	ldr	r3, [pc, #48]	; (8003750 <xTaskRemoveFromEventList+0xbc>)
 800371e:	681b      	ldr	r3, [r3, #0]
 8003720:	6adb      	ldr	r3, [r3, #44]	; 0x2c
 8003722:	429a      	cmp	r2, r3
 8003724:	d905      	bls.n	8003732 <xTaskRemoveFromEventList+0x9e>
 8003726:	2301      	movs	r3, #1
 8003728:	617b      	str	r3, [r7, #20]
 800372a:	4b0a      	ldr	r3, [pc, #40]	; (8003754 <xTaskRemoveFromEventList+0xc0>)
 800372c:	2201      	movs	r2, #1
 800372e:	601a      	str	r2, [r3, #0]
 8003730:	e001      	b.n	8003736 <xTaskRemoveFromEventList+0xa2>
 8003732:	2300      	movs	r3, #0
 8003734:	617b      	str	r3, [r7, #20]
 8003736:	697b      	ldr	r3, [r7, #20]
 8003738:	4618      	mov	r0, r3
 800373a:	3718      	adds	r7, #24
 800373c:	46bd      	mov	sp, r7
 800373e:	bd80      	pop	{r7, pc}
 8003740:	20000b60 	.word	0x20000b60
 8003744:	20000b40 	.word	0x20000b40
 8003748:	20000668 	.word	0x20000668
 800374c:	20000af8 	.word	0x20000af8
 8003750:	20000664 	.word	0x20000664
 8003754:	20000b4c 	.word	0x20000b4c

08003758 <vTaskInternalSetTimeOutState>:
 8003758:	b480      	push	{r7}
 800375a:	b083      	sub	sp, #12
 800375c:	af00      	add	r7, sp, #0
 800375e:	6078      	str	r0, [r7, #4]
 8003760:	4b06      	ldr	r3, [pc, #24]	; (800377c <vTaskInternalSetTimeOutState+0x24>)
 8003762:	681a      	ldr	r2, [r3, #0]
 8003764:	687b      	ldr	r3, [r7, #4]
 8003766:	601a      	str	r2, [r3, #0]
 8003768:	4b05      	ldr	r3, [pc, #20]	; (8003780 <vTaskInternalSetTimeOutState+0x28>)
 800376a:	681a      	ldr	r2, [r3, #0]
 800376c:	687b      	ldr	r3, [r7, #4]
 800376e:	605a      	str	r2, [r3, #4]
 8003770:	bf00      	nop
 8003772:	370c      	adds	r7, #12
 8003774:	46bd      	mov	sp, r7
 8003776:	bc80      	pop	{r7}
 8003778:	4770      	bx	lr
 800377a:	bf00      	nop
 800377c:	20000b50 	.word	0x20000b50
 8003780:	20000b3c 	.word	0x20000b3c

08003784 <xTaskCheckForTimeOut>:
 8003784:	b580      	push	{r7, lr}
 8003786:	b088      	sub	sp, #32
 8003788:	af00      	add	r7, sp, #0
 800378a:	6078      	str	r0, [r7, #4]
 800378c:	6039      	str	r1, [r7, #0]
 800378e:	687b      	ldr	r3, [r7, #4]
 8003790:	2b00      	cmp	r3, #0
 8003792:	d109      	bne.n	80037a8 <xTaskCheckForTimeOut+0x24>
 8003794:	f04f 0350 	mov.w	r3, #80	; 0x50
 8003798:	f383 8811 	msr	BASEPRI, r3
 800379c:	f3bf 8f6f 	isb	sy
 80037a0:	f3bf 8f4f 	dsb	sy
 80037a4:	613b      	str	r3, [r7, #16]
 80037a6:	e7fe      	b.n	80037a6 <xTaskCheckForTimeOut+0x22>
 80037a8:	683b      	ldr	r3, [r7, #0]
 80037aa:	2b00      	cmp	r3, #0
 80037ac:	d109      	bne.n	80037c2 <xTaskCheckForTimeOut+0x3e>
 80037ae:	f04f 0350 	mov.w	r3, #80	; 0x50
 80037b2:	f383 8811 	msr	BASEPRI, r3
 80037b6:	f3bf 8f6f 	isb	sy
 80037ba:	f3bf 8f4f 	dsb	sy
 80037be:	60fb      	str	r3, [r7, #12]
 80037c0:	e7fe      	b.n	80037c0 <xTaskCheckForTimeOut+0x3c>
 80037c2:	f000 fdf1 	bl	80043a8 <vPortEnterCritical>
 80037c6:	4b1d      	ldr	r3, [pc, #116]	; (800383c <xTaskCheckForTimeOut+0xb8>)
 80037c8:	681b      	ldr	r3, [r3, #0]
 80037ca:	61bb      	str	r3, [r7, #24]
 80037cc:	687b      	ldr	r3, [r7, #4]
 80037ce:	685b      	ldr	r3, [r3, #4]
 80037d0:	69ba      	ldr	r2, [r7, #24]
 80037d2:	1ad3      	subs	r3, r2, r3
 80037d4:	617b      	str	r3, [r7, #20]
 80037d6:	683b      	ldr	r3, [r7, #0]
 80037d8:	681b      	ldr	r3, [r3, #0]
 80037da:	f1b3 3fff 	cmp.w	r3, #4294967295
 80037de:	d102      	bne.n	80037e6 <xTaskCheckForTimeOut+0x62>
 80037e0:	2300      	movs	r3, #0
 80037e2:	61fb      	str	r3, [r7, #28]
 80037e4:	e023      	b.n	800382e <xTaskCheckForTimeOut+0xaa>
 80037e6:	687b      	ldr	r3, [r7, #4]
 80037e8:	681a      	ldr	r2, [r3, #0]
 80037ea:	4b15      	ldr	r3, [pc, #84]	; (8003840 <xTaskCheckForTimeOut+0xbc>)
 80037ec:	681b      	ldr	r3, [r3, #0]
 80037ee:	429a      	cmp	r2, r3
 80037f0:	d007      	beq.n	8003802 <xTaskCheckForTimeOut+0x7e>
 80037f2:	687b      	ldr	r3, [r7, #4]
 80037f4:	685b      	ldr	r3, [r3, #4]
 80037f6:	69ba      	ldr	r2, [r7, #24]
 80037f8:	429a      	cmp	r2, r3
 80037fa:	d302      	bcc.n	8003802 <xTaskCheckForTimeOut+0x7e>
 80037fc:	2301      	movs	r3, #1
 80037fe:	61fb      	str	r3, [r7, #28]
 8003800:	e015      	b.n	800382e <xTaskCheckForTimeOut+0xaa>
 8003802:	683b      	ldr	r3, [r7, #0]
 8003804:	681b      	ldr	r3, [r3, #0]
 8003806:	697a      	ldr	r2, [r7, #20]
 8003808:	429a      	cmp	r2, r3
 800380a:	d20b      	bcs.n	8003824 <xTaskCheckForTimeOut+0xa0>
 800380c:	683b      	ldr	r3, [r7, #0]
 800380e:	681a      	ldr	r2, [r3, #0]
 8003810:	697b      	ldr	r3, [r7, #20]
 8003812:	1ad2      	subs	r2, r2, r3
 8003814:	683b      	ldr	r3, [r7, #0]
 8003816:	601a      	str	r2, [r3, #0]
 8003818:	6878      	ldr	r0, [r7, #4]
 800381a:	f7ff ff9d 	bl	8003758 <vTaskInternalSetTimeOutState>
 800381e:	2300      	movs	r3, #0
 8003820:	61fb      	str	r3, [r7, #28]
 8003822:	e004      	b.n	800382e <xTaskCheckForTimeOut+0xaa>
 8003824:	683b      	ldr	r3, [r7, #0]
 8003826:	2200      	movs	r2, #0
 8003828:	601a      	str	r2, [r3, #0]
 800382a:	2301      	movs	r3, #1
 800382c:	61fb      	str	r3, [r7, #28]
 800382e:	f000 fde9 	bl	8004404 <vPortExitCritical>
 8003832:	69fb      	ldr	r3, [r7, #28]
 8003834:	4618      	mov	r0, r3
 8003836:	3720      	adds	r7, #32
 8003838:	46bd      	mov	sp, r7
 800383a:	bd80      	pop	{r7, pc}
 800383c:	20000b3c 	.word	0x20000b3c
 8003840:	20000b50 	.word	0x20000b50

08003844 <vTaskMissedYield>:
 8003844:	b480      	push	{r7}
 8003846:	af00      	add	r7, sp, #0
 8003848:	4b03      	ldr	r3, [pc, #12]	; (8003858 <vTaskMissedYield+0x14>)
 800384a:	2201      	movs	r2, #1
 800384c:	601a      	str	r2, [r3, #0]
 800384e:	bf00      	nop
 8003850:	46bd      	mov	sp, r7
 8003852:	bc80      	pop	{r7}
 8003854:	4770      	bx	lr
 8003856:	bf00      	nop
 8003858:	20000b4c 	.word	0x20000b4c

0800385c <prvIdleTask>:
 800385c:	b580      	push	{r7, lr}
 800385e:	b082      	sub	sp, #8
 8003860:	af00      	add	r7, sp, #0
 8003862:	6078      	str	r0, [r7, #4]
 8003864:	f000 f852 	bl	800390c <prvCheckTasksWaitingTermination>
 8003868:	4b06      	ldr	r3, [pc, #24]	; (8003884 <prvIdleTask+0x28>)
 800386a:	681b      	ldr	r3, [r3, #0]
 800386c:	2b01      	cmp	r3, #1
 800386e:	d9f9      	bls.n	8003864 <prvIdleTask+0x8>
 8003870:	4b05      	ldr	r3, [pc, #20]	; (8003888 <prvIdleTask+0x2c>)
 8003872:	f04f 5280 	mov.w	r2, #268435456	; 0x10000000
 8003876:	601a      	str	r2, [r3, #0]
 8003878:	f3bf 8f4f 	dsb	sy
 800387c:	f3bf 8f6f 	isb	sy
 8003880:	e7f0      	b.n	8003864 <prvIdleTask+0x8>
 8003882:	bf00      	nop
 8003884:	20000668 	.word	0x20000668
 8003888:	e000ed04 	.word	0xe000ed04

0800388c <prvInitialiseTaskLists>:
 800388c:	b580      	push	{r7, lr}
 800388e:	b082      	sub	sp, #8
 8003890:	af00      	add	r7, sp, #0
 8003892:	2300      	movs	r3, #0
 8003894:	607b      	str	r3, [r7, #4]
 8003896:	e00c      	b.n	80038b2 <prvInitialiseTaskLists+0x26>
 8003898:	687a      	ldr	r2, [r7, #4]
 800389a:	4613      	mov	r3, r2
 800389c:	009b      	lsls	r3, r3, #2
 800389e:	4413      	add	r3, r2
 80038a0:	009b      	lsls	r3, r3, #2
 80038a2:	4a12      	ldr	r2, [pc, #72]	; (80038ec <prvInitialiseTaskLists+0x60>)
 80038a4:	4413      	add	r3, r2
 80038a6:	4618      	mov	r0, r3
 80038a8:	f7fe fca8 	bl	80021fc <vListInitialise>
 80038ac:	687b      	ldr	r3, [r7, #4]
 80038ae:	3301      	adds	r3, #1
 80038b0:	607b      	str	r3, [r7, #4]
 80038b2:	687b      	ldr	r3, [r7, #4]
 80038b4:	2b37      	cmp	r3, #55	; 0x37
 80038b6:	d9ef      	bls.n	8003898 <prvInitialiseTaskLists+0xc>
 80038b8:	480d      	ldr	r0, [pc, #52]	; (80038f0 <prvInitialiseTaskLists+0x64>)
 80038ba:	f7fe fc9f 	bl	80021fc <vListInitialise>
 80038be:	480d      	ldr	r0, [pc, #52]	; (80038f4 <prvInitialiseTaskLists+0x68>)
 80038c0:	f7fe fc9c 	bl	80021fc <vListInitialise>
 80038c4:	480c      	ldr	r0, [pc, #48]	; (80038f8 <prvInitialiseTaskLists+0x6c>)
 80038c6:	f7fe fc99 	bl	80021fc <vListInitialise>
 80038ca:	480c      	ldr	r0, [pc, #48]	; (80038fc <prvInitialiseTaskLists+0x70>)
 80038cc:	f7fe fc96 	bl	80021fc <vListInitialise>
 80038d0:	480b      	ldr	r0, [pc, #44]	; (8003900 <prvInitialiseTaskLists+0x74>)
 80038d2:	f7fe fc93 	bl	80021fc <vListInitialise>
 80038d6:	4b0b      	ldr	r3, [pc, #44]	; (8003904 <prvInitialiseTaskLists+0x78>)
 80038d8:	4a05      	ldr	r2, [pc, #20]	; (80038f0 <prvInitialiseTaskLists+0x64>)
 80038da:	601a      	str	r2, [r3, #0]
 80038dc:	4b0a      	ldr	r3, [pc, #40]	; (8003908 <prvInitialiseTaskLists+0x7c>)
 80038de:	4a05      	ldr	r2, [pc, #20]	; (80038f4 <prvInitialiseTaskLists+0x68>)
 80038e0:	601a      	str	r2, [r3, #0]
 80038e2:	bf00      	nop
 80038e4:	3708      	adds	r7, #8
 80038e6:	46bd      	mov	sp, r7
 80038e8:	bd80      	pop	{r7, pc}
 80038ea:	bf00      	nop
 80038ec:	20000668 	.word	0x20000668
 80038f0:	20000ac8 	.word	0x20000ac8
 80038f4:	20000adc 	.word	0x20000adc
 80038f8:	20000af8 	.word	0x20000af8
 80038fc:	20000b0c 	.word	0x20000b0c
 8003900:	20000b24 	.word	0x20000b24
 8003904:	20000af0 	.word	0x20000af0
 8003908:	20000af4 	.word	0x20000af4

0800390c <prvCheckTasksWaitingTermination>:
 800390c:	b580      	push	{r7, lr}
 800390e:	b082      	sub	sp, #8
 8003910:	af00      	add	r7, sp, #0
 8003912:	e019      	b.n	8003948 <prvCheckTasksWaitingTermination+0x3c>
 8003914:	f000 fd48 	bl	80043a8 <vPortEnterCritical>
 8003918:	4b0f      	ldr	r3, [pc, #60]	; (8003958 <prvCheckTasksWaitingTermination+0x4c>)
 800391a:	68db      	ldr	r3, [r3, #12]
 800391c:	68db      	ldr	r3, [r3, #12]
 800391e:	607b      	str	r3, [r7, #4]
 8003920:	687b      	ldr	r3, [r7, #4]
 8003922:	3304      	adds	r3, #4
 8003924:	4618      	mov	r0, r3
 8003926:	f7fe fcef 	bl	8002308 <uxListRemove>
 800392a:	4b0c      	ldr	r3, [pc, #48]	; (800395c <prvCheckTasksWaitingTermination+0x50>)
 800392c:	681b      	ldr	r3, [r3, #0]
 800392e:	3b01      	subs	r3, #1
 8003930:	4a0a      	ldr	r2, [pc, #40]	; (800395c <prvCheckTasksWaitingTermination+0x50>)
 8003932:	6013      	str	r3, [r2, #0]
 8003934:	4b0a      	ldr	r3, [pc, #40]	; (8003960 <prvCheckTasksWaitingTermination+0x54>)
 8003936:	681b      	ldr	r3, [r3, #0]
 8003938:	3b01      	subs	r3, #1
 800393a:	4a09      	ldr	r2, [pc, #36]	; (8003960 <prvCheckTasksWaitingTermination+0x54>)
 800393c:	6013      	str	r3, [r2, #0]
 800393e:	f000 fd61 	bl	8004404 <vPortExitCritical>
 8003942:	6878      	ldr	r0, [r7, #4]
 8003944:	f000 f80e 	bl	8003964 <prvDeleteTCB>
 8003948:	4b05      	ldr	r3, [pc, #20]	; (8003960 <prvCheckTasksWaitingTermination+0x54>)
 800394a:	681b      	ldr	r3, [r3, #0]
 800394c:	2b00      	cmp	r3, #0
 800394e:	d1e1      	bne.n	8003914 <prvCheckTasksWaitingTermination+0x8>
 8003950:	bf00      	nop
 8003952:	3708      	adds	r7, #8
 8003954:	46bd      	mov	sp, r7
 8003956:	bd80      	pop	{r7, pc}
 8003958:	20000b0c 	.word	0x20000b0c
 800395c:	20000b38 	.word	0x20000b38
 8003960:	20000b20 	.word	0x20000b20

08003964 <prvDeleteTCB>:
 8003964:	b580      	push	{r7, lr}
 8003966:	b084      	sub	sp, #16
 8003968:	af00      	add	r7, sp, #0
 800396a:	6078      	str	r0, [r7, #4]
 800396c:	687b      	ldr	r3, [r7, #4]
 800396e:	f893 3059 	ldrb.w	r3, [r3, #89]	; 0x59
 8003972:	2b00      	cmp	r3, #0
 8003974:	d108      	bne.n	8003988 <prvDeleteTCB+0x24>
 8003976:	687b      	ldr	r3, [r7, #4]
 8003978:	6b1b      	ldr	r3, [r3, #48]	; 0x30
 800397a:	4618      	mov	r0, r3
 800397c:	f000 fecc 	bl	8004718 <vPortFree>
 8003980:	6878      	ldr	r0, [r7, #4]
 8003982:	f000 fec9 	bl	8004718 <vPortFree>
 8003986:	e017      	b.n	80039b8 <prvDeleteTCB+0x54>
 8003988:	687b      	ldr	r3, [r7, #4]
 800398a:	f893 3059 	ldrb.w	r3, [r3, #89]	; 0x59
 800398e:	2b01      	cmp	r3, #1
 8003990:	d103      	bne.n	800399a <prvDeleteTCB+0x36>
 8003992:	6878      	ldr	r0, [r7, #4]
 8003994:	f000 fec0 	bl	8004718 <vPortFree>
 8003998:	e00e      	b.n	80039b8 <prvDeleteTCB+0x54>
 800399a:	687b      	ldr	r3, [r7, #4]
 800399c:	f893 3059 	ldrb.w	r3, [r3, #89]	; 0x59
 80039a0:	2b02      	cmp	r3, #2
 80039a2:	d009      	beq.n	80039b8 <prvDeleteTCB+0x54>
 80039a4:	f04f 0350 	mov.w	r3, #80	; 0x50
 80039a8:	f383 8811 	msr	BASEPRI, r3
 80039ac:	f3bf 8f6f 	isb	sy
 80039b0:	f3bf 8f4f 	dsb	sy
 80039b4:	60fb      	str	r3, [r7, #12]
 80039b6:	e7fe      	b.n	80039b6 <prvDeleteTCB+0x52>
 80039b8:	bf00      	nop
 80039ba:	3710      	adds	r7, #16
 80039bc:	46bd      	mov	sp, r7
 80039be:	bd80      	pop	{r7, pc}

080039c0 <prvResetNextTaskUnblockTime>:
 80039c0:	b480      	push	{r7}
 80039c2:	b083      	sub	sp, #12
 80039c4:	af00      	add	r7, sp, #0
 80039c6:	4b0e      	ldr	r3, [pc, #56]	; (8003a00 <prvResetNextTaskUnblockTime+0x40>)
 80039c8:	681b      	ldr	r3, [r3, #0]
 80039ca:	681b      	ldr	r3, [r3, #0]
 80039cc:	2b00      	cmp	r3, #0
 80039ce:	d101      	bne.n	80039d4 <prvResetNextTaskUnblockTime+0x14>
 80039d0:	2301      	movs	r3, #1
 80039d2:	e000      	b.n	80039d6 <prvResetNextTaskUnblockTime+0x16>
 80039d4:	2300      	movs	r3, #0
 80039d6:	2b00      	cmp	r3, #0
 80039d8:	d004      	beq.n	80039e4 <prvResetNextTaskUnblockTime+0x24>
 80039da:	4b0a      	ldr	r3, [pc, #40]	; (8003a04 <prvResetNextTaskUnblockTime+0x44>)
 80039dc:	f04f 32ff 	mov.w	r2, #4294967295
 80039e0:	601a      	str	r2, [r3, #0]
 80039e2:	e008      	b.n	80039f6 <prvResetNextTaskUnblockTime+0x36>
 80039e4:	4b06      	ldr	r3, [pc, #24]	; (8003a00 <prvResetNextTaskUnblockTime+0x40>)
 80039e6:	681b      	ldr	r3, [r3, #0]
 80039e8:	68db      	ldr	r3, [r3, #12]
 80039ea:	68db      	ldr	r3, [r3, #12]
 80039ec:	607b      	str	r3, [r7, #4]
 80039ee:	687b      	ldr	r3, [r7, #4]
 80039f0:	685b      	ldr	r3, [r3, #4]
 80039f2:	4a04      	ldr	r2, [pc, #16]	; (8003a04 <prvResetNextTaskUnblockTime+0x44>)
 80039f4:	6013      	str	r3, [r2, #0]
 80039f6:	bf00      	nop
 80039f8:	370c      	adds	r7, #12
 80039fa:	46bd      	mov	sp, r7
 80039fc:	bc80      	pop	{r7}
 80039fe:	4770      	bx	lr
 8003a00:	20000af0 	.word	0x20000af0
 8003a04:	20000b58 	.word	0x20000b58

08003a08 <xTaskGetSchedulerState>:
 8003a08:	b480      	push	{r7}
 8003a0a:	b083      	sub	sp, #12
 8003a0c:	af00      	add	r7, sp, #0
 8003a0e:	4b0b      	ldr	r3, [pc, #44]	; (8003a3c <xTaskGetSchedulerState+0x34>)
 8003a10:	681b      	ldr	r3, [r3, #0]
 8003a12:	2b00      	cmp	r3, #0
 8003a14:	d102      	bne.n	8003a1c <xTaskGetSchedulerState+0x14>
 8003a16:	2301      	movs	r3, #1
 8003a18:	607b      	str	r3, [r7, #4]
 8003a1a:	e008      	b.n	8003a2e <xTaskGetSchedulerState+0x26>
 8003a1c:	4b08      	ldr	r3, [pc, #32]	; (8003a40 <xTaskGetSchedulerState+0x38>)
 8003a1e:	681b      	ldr	r3, [r3, #0]
 8003a20:	2b00      	cmp	r3, #0
 8003a22:	d102      	bne.n	8003a2a <xTaskGetSchedulerState+0x22>
 8003a24:	2302      	movs	r3, #2
 8003a26:	607b      	str	r3, [r7, #4]
 8003a28:	e001      	b.n	8003a2e <xTaskGetSchedulerState+0x26>
 8003a2a:	2300      	movs	r3, #0
 8003a2c:	607b      	str	r3, [r7, #4]
 8003a2e:	687b      	ldr	r3, [r7, #4]
 8003a30:	4618      	mov	r0, r3
 8003a32:	370c      	adds	r7, #12
 8003a34:	46bd      	mov	sp, r7
 8003a36:	bc80      	pop	{r7}
 8003a38:	4770      	bx	lr
 8003a3a:	bf00      	nop
 8003a3c:	20000b44 	.word	0x20000b44
 8003a40:	20000b60 	.word	0x20000b60

08003a44 <xTaskPriorityDisinherit>:
 8003a44:	b580      	push	{r7, lr}
 8003a46:	b086      	sub	sp, #24
 8003a48:	af00      	add	r7, sp, #0
 8003a4a:	6078      	str	r0, [r7, #4]
 8003a4c:	687b      	ldr	r3, [r7, #4]
 8003a4e:	613b      	str	r3, [r7, #16]
 8003a50:	2300      	movs	r3, #0
 8003a52:	617b      	str	r3, [r7, #20]
 8003a54:	687b      	ldr	r3, [r7, #4]
 8003a56:	2b00      	cmp	r3, #0
 8003a58:	d054      	beq.n	8003b04 <xTaskPriorityDisinherit+0xc0>
 8003a5a:	4b2d      	ldr	r3, [pc, #180]	; (8003b10 <xTaskPriorityDisinherit+0xcc>)
 8003a5c:	681b      	ldr	r3, [r3, #0]
 8003a5e:	693a      	ldr	r2, [r7, #16]
 8003a60:	429a      	cmp	r2, r3
 8003a62:	d009      	beq.n	8003a78 <xTaskPriorityDisinherit+0x34>
 8003a64:	f04f 0350 	mov.w	r3, #80	; 0x50
 8003a68:	f383 8811 	msr	BASEPRI, r3
 8003a6c:	f3bf 8f6f 	isb	sy
 8003a70:	f3bf 8f4f 	dsb	sy
 8003a74:	60fb      	str	r3, [r7, #12]
 8003a76:	e7fe      	b.n	8003a76 <xTaskPriorityDisinherit+0x32>
 8003a78:	693b      	ldr	r3, [r7, #16]
 8003a7a:	6d1b      	ldr	r3, [r3, #80]	; 0x50
 8003a7c:	2b00      	cmp	r3, #0
 8003a7e:	d109      	bne.n	8003a94 <xTaskPriorityDisinherit+0x50>
 8003a80:	f04f 0350 	mov.w	r3, #80	; 0x50
 8003a84:	f383 8811 	msr	BASEPRI, r3
 8003a88:	f3bf 8f6f 	isb	sy
 8003a8c:	f3bf 8f4f 	dsb	sy
 8003a90:	60bb      	str	r3, [r7, #8]
 8003a92:	e7fe      	b.n	8003a92 <xTaskPriorityDisinherit+0x4e>
 8003a94:	693b      	ldr	r3, [r7, #16]
 8003a96:	6d1b      	ldr	r3, [r3, #80]	; 0x50
 8003a98:	1e5a      	subs	r2, r3, #1
 8003a9a:	693b      	ldr	r3, [r7, #16]
 8003a9c:	651a      	str	r2, [r3, #80]	; 0x50
 8003a9e:	693b      	ldr	r3, [r7, #16]
 8003aa0:	6ada      	ldr	r2, [r3, #44]	; 0x2c
 8003aa2:	693b      	ldr	r3, [r7, #16]
 8003aa4:	6cdb      	ldr	r3, [r3, #76]	; 0x4c
 8003aa6:	429a      	cmp	r2, r3
 8003aa8:	d02c      	beq.n	8003b04 <xTaskPriorityDisinherit+0xc0>
 8003aaa:	693b      	ldr	r3, [r7, #16]
 8003aac:	6d1b      	ldr	r3, [r3, #80]	; 0x50
 8003aae:	2b00      	cmp	r3, #0
 8003ab0:	d128      	bne.n	8003b04 <xTaskPriorityDisinherit+0xc0>
 8003ab2:	693b      	ldr	r3, [r7, #16]
 8003ab4:	3304      	adds	r3, #4
 8003ab6:	4618      	mov	r0, r3
 8003ab8:	f7fe fc26 	bl	8002308 <uxListRemove>
 8003abc:	693b      	ldr	r3, [r7, #16]
 8003abe:	6cda      	ldr	r2, [r3, #76]	; 0x4c
 8003ac0:	693b      	ldr	r3, [r7, #16]
 8003ac2:	62da      	str	r2, [r3, #44]	; 0x2c
 8003ac4:	693b      	ldr	r3, [r7, #16]
 8003ac6:	6adb      	ldr	r3, [r3, #44]	; 0x2c
 8003ac8:	f1c3 0238 	rsb	r2, r3, #56	; 0x38
 8003acc:	693b      	ldr	r3, [r7, #16]
 8003ace:	619a      	str	r2, [r3, #24]
 8003ad0:	693b      	ldr	r3, [r7, #16]
 8003ad2:	6ada      	ldr	r2, [r3, #44]	; 0x2c
 8003ad4:	4b0f      	ldr	r3, [pc, #60]	; (8003b14 <xTaskPriorityDisinherit+0xd0>)
 8003ad6:	681b      	ldr	r3, [r3, #0]
 8003ad8:	429a      	cmp	r2, r3
 8003ada:	d903      	bls.n	8003ae4 <xTaskPriorityDisinherit+0xa0>
 8003adc:	693b      	ldr	r3, [r7, #16]
 8003ade:	6adb      	ldr	r3, [r3, #44]	; 0x2c
 8003ae0:	4a0c      	ldr	r2, [pc, #48]	; (8003b14 <xTaskPriorityDisinherit+0xd0>)
 8003ae2:	6013      	str	r3, [r2, #0]
 8003ae4:	693b      	ldr	r3, [r7, #16]
 8003ae6:	6ada      	ldr	r2, [r3, #44]	; 0x2c
 8003ae8:	4613      	mov	r3, r2
 8003aea:	009b      	lsls	r3, r3, #2
 8003aec:	4413      	add	r3, r2
 8003aee:	009b      	lsls	r3, r3, #2
 8003af0:	4a09      	ldr	r2, [pc, #36]	; (8003b18 <xTaskPriorityDisinherit+0xd4>)
 8003af2:	441a      	add	r2, r3
 8003af4:	693b      	ldr	r3, [r7, #16]
 8003af6:	3304      	adds	r3, #4
 8003af8:	4619      	mov	r1, r3
 8003afa:	4610      	mov	r0, r2
 8003afc:	f7fe fba9 	bl	8002252 <vListInsertEnd>
 8003b00:	2301      	movs	r3, #1
 8003b02:	617b      	str	r3, [r7, #20]
 8003b04:	697b      	ldr	r3, [r7, #20]
 8003b06:	4618      	mov	r0, r3
 8003b08:	3718      	adds	r7, #24
 8003b0a:	46bd      	mov	sp, r7
 8003b0c:	bd80      	pop	{r7, pc}
 8003b0e:	bf00      	nop
 8003b10:	20000664 	.word	0x20000664
 8003b14:	20000b40 	.word	0x20000b40
 8003b18:	20000668 	.word	0x20000668

08003b1c <prvAddCurrentTaskToDelayedList>:
 8003b1c:	b580      	push	{r7, lr}
 8003b1e:	b084      	sub	sp, #16
 8003b20:	af00      	add	r7, sp, #0
 8003b22:	6078      	str	r0, [r7, #4]
 8003b24:	6039      	str	r1, [r7, #0]
 8003b26:	4b21      	ldr	r3, [pc, #132]	; (8003bac <prvAddCurrentTaskToDelayedList+0x90>)
 8003b28:	681b      	ldr	r3, [r3, #0]
 8003b2a:	60fb      	str	r3, [r7, #12]
 8003b2c:	4b20      	ldr	r3, [pc, #128]	; (8003bb0 <prvAddCurrentTaskToDelayedList+0x94>)
 8003b2e:	681b      	ldr	r3, [r3, #0]
 8003b30:	3304      	adds	r3, #4
 8003b32:	4618      	mov	r0, r3
 8003b34:	f7fe fbe8 	bl	8002308 <uxListRemove>
 8003b38:	687b      	ldr	r3, [r7, #4]
 8003b3a:	f1b3 3fff 	cmp.w	r3, #4294967295
 8003b3e:	d10a      	bne.n	8003b56 <prvAddCurrentTaskToDelayedList+0x3a>
 8003b40:	683b      	ldr	r3, [r7, #0]
 8003b42:	2b00      	cmp	r3, #0
 8003b44:	d007      	beq.n	8003b56 <prvAddCurrentTaskToDelayedList+0x3a>
 8003b46:	4b1a      	ldr	r3, [pc, #104]	; (8003bb0 <prvAddCurrentTaskToDelayedList+0x94>)
 8003b48:	681b      	ldr	r3, [r3, #0]
 8003b4a:	3304      	adds	r3, #4
 8003b4c:	4619      	mov	r1, r3
 8003b4e:	4819      	ldr	r0, [pc, #100]	; (8003bb4 <prvAddCurrentTaskToDelayedList+0x98>)
 8003b50:	f7fe fb7f 	bl	8002252 <vListInsertEnd>
 8003b54:	e026      	b.n	8003ba4 <prvAddCurrentTaskToDelayedList+0x88>
 8003b56:	68fa      	ldr	r2, [r7, #12]
 8003b58:	687b      	ldr	r3, [r7, #4]
 8003b5a:	4413      	add	r3, r2
 8003b5c:	60bb      	str	r3, [r7, #8]
 8003b5e:	4b14      	ldr	r3, [pc, #80]	; (8003bb0 <prvAddCurrentTaskToDelayedList+0x94>)
 8003b60:	681b      	ldr	r3, [r3, #0]
 8003b62:	68ba      	ldr	r2, [r7, #8]
 8003b64:	605a      	str	r2, [r3, #4]
 8003b66:	68ba      	ldr	r2, [r7, #8]
 8003b68:	68fb      	ldr	r3, [r7, #12]
 8003b6a:	429a      	cmp	r2, r3
 8003b6c:	d209      	bcs.n	8003b82 <prvAddCurrentTaskToDelayedList+0x66>
 8003b6e:	4b12      	ldr	r3, [pc, #72]	; (8003bb8 <prvAddCurrentTaskToDelayedList+0x9c>)
 8003b70:	681a      	ldr	r2, [r3, #0]
 8003b72:	4b0f      	ldr	r3, [pc, #60]	; (8003bb0 <prvAddCurrentTaskToDelayedList+0x94>)
 8003b74:	681b      	ldr	r3, [r3, #0]
 8003b76:	3304      	adds	r3, #4
 8003b78:	4619      	mov	r1, r3
 8003b7a:	4610      	mov	r0, r2
 8003b7c:	f7fe fb8c 	bl	8002298 <vListInsert>
 8003b80:	e010      	b.n	8003ba4 <prvAddCurrentTaskToDelayedList+0x88>
 8003b82:	4b0e      	ldr	r3, [pc, #56]	; (8003bbc <prvAddCurrentTaskToDelayedList+0xa0>)
 8003b84:	681a      	ldr	r2, [r3, #0]
 8003b86:	4b0a      	ldr	r3, [pc, #40]	; (8003bb0 <prvAddCurrentTaskToDelayedList+0x94>)
 8003b88:	681b      	ldr	r3, [r3, #0]
 8003b8a:	3304      	adds	r3, #4
 8003b8c:	4619      	mov	r1, r3
 8003b8e:	4610      	mov	r0, r2
 8003b90:	f7fe fb82 	bl	8002298 <vListInsert>
 8003b94:	4b0a      	ldr	r3, [pc, #40]	; (8003bc0 <prvAddCurrentTaskToDelayedList+0xa4>)
 8003b96:	681b      	ldr	r3, [r3, #0]
 8003b98:	68ba      	ldr	r2, [r7, #8]
 8003b9a:	429a      	cmp	r2, r3
 8003b9c:	d202      	bcs.n	8003ba4 <prvAddCurrentTaskToDelayedList+0x88>
 8003b9e:	4a08      	ldr	r2, [pc, #32]	; (8003bc0 <prvAddCurrentTaskToDelayedList+0xa4>)
 8003ba0:	68bb      	ldr	r3, [r7, #8]
 8003ba2:	6013      	str	r3, [r2, #0]
 8003ba4:	bf00      	nop
 8003ba6:	3710      	adds	r7, #16
 8003ba8:	46bd      	mov	sp, r7
 8003baa:	bd80      	pop	{r7, pc}
 8003bac:	20000b3c 	.word	0x20000b3c
 8003bb0:	20000664 	.word	0x20000664
 8003bb4:	20000b24 	.word	0x20000b24
 8003bb8:	20000af4 	.word	0x20000af4
 8003bbc:	20000af0 	.word	0x20000af0
 8003bc0:	20000b58 	.word	0x20000b58

08003bc4 <xTimerCreateTimerTask>:
 8003bc4:	b580      	push	{r7, lr}
 8003bc6:	b08a      	sub	sp, #40	; 0x28
 8003bc8:	af04      	add	r7, sp, #16
 8003bca:	2300      	movs	r3, #0
 8003bcc:	617b      	str	r3, [r7, #20]
 8003bce:	f000 fac3 	bl	8004158 <prvCheckForValidListAndQueue>
 8003bd2:	4b1c      	ldr	r3, [pc, #112]	; (8003c44 <xTimerCreateTimerTask+0x80>)
 8003bd4:	681b      	ldr	r3, [r3, #0]
 8003bd6:	2b00      	cmp	r3, #0
 8003bd8:	d021      	beq.n	8003c1e <xTimerCreateTimerTask+0x5a>
 8003bda:	2300      	movs	r3, #0
 8003bdc:	60fb      	str	r3, [r7, #12]
 8003bde:	2300      	movs	r3, #0
 8003be0:	60bb      	str	r3, [r7, #8]
 8003be2:	1d3a      	adds	r2, r7, #4
 8003be4:	f107 0108 	add.w	r1, r7, #8
 8003be8:	f107 030c 	add.w	r3, r7, #12
 8003bec:	4618      	mov	r0, r3
 8003bee:	f7fe faeb 	bl	80021c8 <vApplicationGetTimerTaskMemory>
 8003bf2:	6879      	ldr	r1, [r7, #4]
 8003bf4:	68bb      	ldr	r3, [r7, #8]
 8003bf6:	68fa      	ldr	r2, [r7, #12]
 8003bf8:	9202      	str	r2, [sp, #8]
 8003bfa:	9301      	str	r3, [sp, #4]
 8003bfc:	2302      	movs	r3, #2
 8003bfe:	9300      	str	r3, [sp, #0]
 8003c00:	2300      	movs	r3, #0
 8003c02:	460a      	mov	r2, r1
 8003c04:	4910      	ldr	r1, [pc, #64]	; (8003c48 <xTimerCreateTimerTask+0x84>)
 8003c06:	4811      	ldr	r0, [pc, #68]	; (8003c4c <xTimerCreateTimerTask+0x88>)
 8003c08:	f7ff f8d6 	bl	8002db8 <xTaskCreateStatic>
 8003c0c:	4602      	mov	r2, r0
 8003c0e:	4b10      	ldr	r3, [pc, #64]	; (8003c50 <xTimerCreateTimerTask+0x8c>)
 8003c10:	601a      	str	r2, [r3, #0]
 8003c12:	4b0f      	ldr	r3, [pc, #60]	; (8003c50 <xTimerCreateTimerTask+0x8c>)
 8003c14:	681b      	ldr	r3, [r3, #0]
 8003c16:	2b00      	cmp	r3, #0
 8003c18:	d001      	beq.n	8003c1e <xTimerCreateTimerTask+0x5a>
 8003c1a:	2301      	movs	r3, #1
 8003c1c:	617b      	str	r3, [r7, #20]
 8003c1e:	697b      	ldr	r3, [r7, #20]
 8003c20:	2b00      	cmp	r3, #0
 8003c22:	d109      	bne.n	8003c38 <xTimerCreateTimerTask+0x74>
 8003c24:	f04f 0350 	mov.w	r3, #80	; 0x50
 8003c28:	f383 8811 	msr	BASEPRI, r3
 8003c2c:	f3bf 8f6f 	isb	sy
 8003c30:	f3bf 8f4f 	dsb	sy
 8003c34:	613b      	str	r3, [r7, #16]
 8003c36:	e7fe      	b.n	8003c36 <xTimerCreateTimerTask+0x72>
 8003c38:	697b      	ldr	r3, [r7, #20]
 8003c3a:	4618      	mov	r0, r3
 8003c3c:	3718      	adds	r7, #24
 8003c3e:	46bd      	mov	sp, r7
 8003c40:	bd80      	pop	{r7, pc}
 8003c42:	bf00      	nop
 8003c44:	20000b94 	.word	0x20000b94
 8003c48:	080053ac 	.word	0x080053ac
 8003c4c:	08003d6d 	.word	0x08003d6d
 8003c50:	20000b98 	.word	0x20000b98

08003c54 <xTimerGenericCommand>:
 8003c54:	b580      	push	{r7, lr}
 8003c56:	b08a      	sub	sp, #40	; 0x28
 8003c58:	af00      	add	r7, sp, #0
 8003c5a:	60f8      	str	r0, [r7, #12]
 8003c5c:	60b9      	str	r1, [r7, #8]
 8003c5e:	607a      	str	r2, [r7, #4]
 8003c60:	603b      	str	r3, [r7, #0]
 8003c62:	2300      	movs	r3, #0
 8003c64:	627b      	str	r3, [r7, #36]	; 0x24
 8003c66:	68fb      	ldr	r3, [r7, #12]
 8003c68:	2b00      	cmp	r3, #0
 8003c6a:	d109      	bne.n	8003c80 <xTimerGenericCommand+0x2c>
 8003c6c:	f04f 0350 	mov.w	r3, #80	; 0x50
 8003c70:	f383 8811 	msr	BASEPRI, r3
 8003c74:	f3bf 8f6f 	isb	sy
 8003c78:	f3bf 8f4f 	dsb	sy
 8003c7c:	623b      	str	r3, [r7, #32]
 8003c7e:	e7fe      	b.n	8003c7e <xTimerGenericCommand+0x2a>
 8003c80:	4b19      	ldr	r3, [pc, #100]	; (8003ce8 <xTimerGenericCommand+0x94>)
 8003c82:	681b      	ldr	r3, [r3, #0]
 8003c84:	2b00      	cmp	r3, #0
 8003c86:	d02a      	beq.n	8003cde <xTimerGenericCommand+0x8a>
 8003c88:	68bb      	ldr	r3, [r7, #8]
 8003c8a:	613b      	str	r3, [r7, #16]
 8003c8c:	687b      	ldr	r3, [r7, #4]
 8003c8e:	617b      	str	r3, [r7, #20]
 8003c90:	68fb      	ldr	r3, [r7, #12]
 8003c92:	61bb      	str	r3, [r7, #24]
 8003c94:	68bb      	ldr	r3, [r7, #8]
 8003c96:	2b05      	cmp	r3, #5
 8003c98:	dc18      	bgt.n	8003ccc <xTimerGenericCommand+0x78>
 8003c9a:	f7ff feb5 	bl	8003a08 <xTaskGetSchedulerState>
 8003c9e:	4603      	mov	r3, r0
 8003ca0:	2b02      	cmp	r3, #2
 8003ca2:	d109      	bne.n	8003cb8 <xTimerGenericCommand+0x64>
 8003ca4:	4b10      	ldr	r3, [pc, #64]	; (8003ce8 <xTimerGenericCommand+0x94>)
 8003ca6:	6818      	ldr	r0, [r3, #0]
 8003ca8:	f107 0110 	add.w	r1, r7, #16
 8003cac:	2300      	movs	r3, #0
 8003cae:	6b3a      	ldr	r2, [r7, #48]	; 0x30
 8003cb0:	f7fe fc8e 	bl	80025d0 <xQueueGenericSend>
 8003cb4:	6278      	str	r0, [r7, #36]	; 0x24
 8003cb6:	e012      	b.n	8003cde <xTimerGenericCommand+0x8a>
 8003cb8:	4b0b      	ldr	r3, [pc, #44]	; (8003ce8 <xTimerGenericCommand+0x94>)
 8003cba:	6818      	ldr	r0, [r3, #0]
 8003cbc:	f107 0110 	add.w	r1, r7, #16
 8003cc0:	2300      	movs	r3, #0
 8003cc2:	2200      	movs	r2, #0
 8003cc4:	f7fe fc84 	bl	80025d0 <xQueueGenericSend>
 8003cc8:	6278      	str	r0, [r7, #36]	; 0x24
 8003cca:	e008      	b.n	8003cde <xTimerGenericCommand+0x8a>
 8003ccc:	4b06      	ldr	r3, [pc, #24]	; (8003ce8 <xTimerGenericCommand+0x94>)
 8003cce:	6818      	ldr	r0, [r3, #0]
 8003cd0:	f107 0110 	add.w	r1, r7, #16
 8003cd4:	2300      	movs	r3, #0
 8003cd6:	683a      	ldr	r2, [r7, #0]
 8003cd8:	f7fe fd74 	bl	80027c4 <xQueueGenericSendFromISR>
 8003cdc:	6278      	str	r0, [r7, #36]	; 0x24
 8003cde:	6a7b      	ldr	r3, [r7, #36]	; 0x24
 8003ce0:	4618      	mov	r0, r3
 8003ce2:	3728      	adds	r7, #40	; 0x28
 8003ce4:	46bd      	mov	sp, r7
 8003ce6:	bd80      	pop	{r7, pc}
 8003ce8:	20000b94 	.word	0x20000b94

08003cec <prvProcessExpiredTimer>:
 8003cec:	b580      	push	{r7, lr}
 8003cee:	b088      	sub	sp, #32
 8003cf0:	af02      	add	r7, sp, #8
 8003cf2:	6078      	str	r0, [r7, #4]
 8003cf4:	6039      	str	r1, [r7, #0]
 8003cf6:	4b1c      	ldr	r3, [pc, #112]	; (8003d68 <prvProcessExpiredTimer+0x7c>)
 8003cf8:	681b      	ldr	r3, [r3, #0]
 8003cfa:	68db      	ldr	r3, [r3, #12]
 8003cfc:	68db      	ldr	r3, [r3, #12]
 8003cfe:	617b      	str	r3, [r7, #20]
 8003d00:	697b      	ldr	r3, [r7, #20]
 8003d02:	3304      	adds	r3, #4
 8003d04:	4618      	mov	r0, r3
 8003d06:	f7fe faff 	bl	8002308 <uxListRemove>
 8003d0a:	697b      	ldr	r3, [r7, #20]
 8003d0c:	69db      	ldr	r3, [r3, #28]
 8003d0e:	2b01      	cmp	r3, #1
 8003d10:	d121      	bne.n	8003d56 <prvProcessExpiredTimer+0x6a>
 8003d12:	697b      	ldr	r3, [r7, #20]
 8003d14:	699a      	ldr	r2, [r3, #24]
 8003d16:	687b      	ldr	r3, [r7, #4]
 8003d18:	18d1      	adds	r1, r2, r3
 8003d1a:	687b      	ldr	r3, [r7, #4]
 8003d1c:	683a      	ldr	r2, [r7, #0]
 8003d1e:	6978      	ldr	r0, [r7, #20]
 8003d20:	f000 f8c8 	bl	8003eb4 <prvInsertTimerInActiveList>
 8003d24:	4603      	mov	r3, r0
 8003d26:	2b00      	cmp	r3, #0
 8003d28:	d015      	beq.n	8003d56 <prvProcessExpiredTimer+0x6a>
 8003d2a:	2300      	movs	r3, #0
 8003d2c:	9300      	str	r3, [sp, #0]
 8003d2e:	2300      	movs	r3, #0
 8003d30:	687a      	ldr	r2, [r7, #4]
 8003d32:	2100      	movs	r1, #0
 8003d34:	6978      	ldr	r0, [r7, #20]
 8003d36:	f7ff ff8d 	bl	8003c54 <xTimerGenericCommand>
 8003d3a:	6138      	str	r0, [r7, #16]
 8003d3c:	693b      	ldr	r3, [r7, #16]
 8003d3e:	2b00      	cmp	r3, #0
 8003d40:	d109      	bne.n	8003d56 <prvProcessExpiredTimer+0x6a>
 8003d42:	f04f 0350 	mov.w	r3, #80	; 0x50
 8003d46:	f383 8811 	msr	BASEPRI, r3
 8003d4a:	f3bf 8f6f 	isb	sy
 8003d4e:	f3bf 8f4f 	dsb	sy
 8003d52:	60fb      	str	r3, [r7, #12]
 8003d54:	e7fe      	b.n	8003d54 <prvProcessExpiredTimer+0x68>
 8003d56:	697b      	ldr	r3, [r7, #20]
 8003d58:	6a5b      	ldr	r3, [r3, #36]	; 0x24
 8003d5a:	6978      	ldr	r0, [r7, #20]
 8003d5c:	4798      	blx	r3
 8003d5e:	bf00      	nop
 8003d60:	3718      	adds	r7, #24
 8003d62:	46bd      	mov	sp, r7
 8003d64:	bd80      	pop	{r7, pc}
 8003d66:	bf00      	nop
 8003d68:	20000b8c 	.word	0x20000b8c

08003d6c <prvTimerTask>:
 8003d6c:	b580      	push	{r7, lr}
 8003d6e:	b084      	sub	sp, #16
 8003d70:	af00      	add	r7, sp, #0
 8003d72:	6078      	str	r0, [r7, #4]
 8003d74:	f107 0308 	add.w	r3, r7, #8
 8003d78:	4618      	mov	r0, r3
 8003d7a:	f000 f857 	bl	8003e2c <prvGetNextExpireTime>
 8003d7e:	60f8      	str	r0, [r7, #12]
 8003d80:	68bb      	ldr	r3, [r7, #8]
 8003d82:	4619      	mov	r1, r3
 8003d84:	68f8      	ldr	r0, [r7, #12]
 8003d86:	f000 f803 	bl	8003d90 <prvProcessTimerOrBlockTask>
 8003d8a:	f000 f8d5 	bl	8003f38 <prvProcessReceivedCommands>
 8003d8e:	e7f1      	b.n	8003d74 <prvTimerTask+0x8>

08003d90 <prvProcessTimerOrBlockTask>:
 8003d90:	b580      	push	{r7, lr}
 8003d92:	b084      	sub	sp, #16
 8003d94:	af00      	add	r7, sp, #0
 8003d96:	6078      	str	r0, [r7, #4]
 8003d98:	6039      	str	r1, [r7, #0]
 8003d9a:	f7ff fa39 	bl	8003210 <vTaskSuspendAll>
 8003d9e:	f107 0308 	add.w	r3, r7, #8
 8003da2:	4618      	mov	r0, r3
 8003da4:	f000 f866 	bl	8003e74 <prvSampleTimeNow>
 8003da8:	60f8      	str	r0, [r7, #12]
 8003daa:	68bb      	ldr	r3, [r7, #8]
 8003dac:	2b00      	cmp	r3, #0
 8003dae:	d130      	bne.n	8003e12 <prvProcessTimerOrBlockTask+0x82>
 8003db0:	683b      	ldr	r3, [r7, #0]
 8003db2:	2b00      	cmp	r3, #0
 8003db4:	d10a      	bne.n	8003dcc <prvProcessTimerOrBlockTask+0x3c>
 8003db6:	687a      	ldr	r2, [r7, #4]
 8003db8:	68fb      	ldr	r3, [r7, #12]
 8003dba:	429a      	cmp	r2, r3
 8003dbc:	d806      	bhi.n	8003dcc <prvProcessTimerOrBlockTask+0x3c>
 8003dbe:	f7ff fa35 	bl	800322c <xTaskResumeAll>
 8003dc2:	68f9      	ldr	r1, [r7, #12]
 8003dc4:	6878      	ldr	r0, [r7, #4]
 8003dc6:	f7ff ff91 	bl	8003cec <prvProcessExpiredTimer>
 8003dca:	e024      	b.n	8003e16 <prvProcessTimerOrBlockTask+0x86>
 8003dcc:	683b      	ldr	r3, [r7, #0]
 8003dce:	2b00      	cmp	r3, #0
 8003dd0:	d008      	beq.n	8003de4 <prvProcessTimerOrBlockTask+0x54>
 8003dd2:	4b13      	ldr	r3, [pc, #76]	; (8003e20 <prvProcessTimerOrBlockTask+0x90>)
 8003dd4:	681b      	ldr	r3, [r3, #0]
 8003dd6:	681b      	ldr	r3, [r3, #0]
 8003dd8:	2b00      	cmp	r3, #0
 8003dda:	bf0c      	ite	eq
 8003ddc:	2301      	moveq	r3, #1
 8003dde:	2300      	movne	r3, #0
 8003de0:	b2db      	uxtb	r3, r3
 8003de2:	603b      	str	r3, [r7, #0]
 8003de4:	4b0f      	ldr	r3, [pc, #60]	; (8003e24 <prvProcessTimerOrBlockTask+0x94>)
 8003de6:	6818      	ldr	r0, [r3, #0]
 8003de8:	687a      	ldr	r2, [r7, #4]
 8003dea:	68fb      	ldr	r3, [r7, #12]
 8003dec:	1ad3      	subs	r3, r2, r3
 8003dee:	683a      	ldr	r2, [r7, #0]
 8003df0:	4619      	mov	r1, r3
 8003df2:	f7fe ffad 	bl	8002d50 <vQueueWaitForMessageRestricted>
 8003df6:	f7ff fa19 	bl	800322c <xTaskResumeAll>
 8003dfa:	4603      	mov	r3, r0
 8003dfc:	2b00      	cmp	r3, #0
 8003dfe:	d10a      	bne.n	8003e16 <prvProcessTimerOrBlockTask+0x86>
 8003e00:	4b09      	ldr	r3, [pc, #36]	; (8003e28 <prvProcessTimerOrBlockTask+0x98>)
 8003e02:	f04f 5280 	mov.w	r2, #268435456	; 0x10000000
 8003e06:	601a      	str	r2, [r3, #0]
 8003e08:	f3bf 8f4f 	dsb	sy
 8003e0c:	f3bf 8f6f 	isb	sy
 8003e10:	e001      	b.n	8003e16 <prvProcessTimerOrBlockTask+0x86>
 8003e12:	f7ff fa0b 	bl	800322c <xTaskResumeAll>
 8003e16:	bf00      	nop
 8003e18:	3710      	adds	r7, #16
 8003e1a:	46bd      	mov	sp, r7
 8003e1c:	bd80      	pop	{r7, pc}
 8003e1e:	bf00      	nop
 8003e20:	20000b90 	.word	0x20000b90
 8003e24:	20000b94 	.word	0x20000b94
 8003e28:	e000ed04 	.word	0xe000ed04

08003e2c <prvGetNextExpireTime>:
 8003e2c:	b480      	push	{r7}
 8003e2e:	b085      	sub	sp, #20
 8003e30:	af00      	add	r7, sp, #0
 8003e32:	6078      	str	r0, [r7, #4]
 8003e34:	4b0e      	ldr	r3, [pc, #56]	; (8003e70 <prvGetNextExpireTime+0x44>)
 8003e36:	681b      	ldr	r3, [r3, #0]
 8003e38:	681b      	ldr	r3, [r3, #0]
 8003e3a:	2b00      	cmp	r3, #0
 8003e3c:	bf0c      	ite	eq
 8003e3e:	2301      	moveq	r3, #1
 8003e40:	2300      	movne	r3, #0
 8003e42:	b2db      	uxtb	r3, r3
 8003e44:	461a      	mov	r2, r3
 8003e46:	687b      	ldr	r3, [r7, #4]
 8003e48:	601a      	str	r2, [r3, #0]
 8003e4a:	687b      	ldr	r3, [r7, #4]
 8003e4c:	681b      	ldr	r3, [r3, #0]
 8003e4e:	2b00      	cmp	r3, #0
 8003e50:	d105      	bne.n	8003e5e <prvGetNextExpireTime+0x32>
 8003e52:	4b07      	ldr	r3, [pc, #28]	; (8003e70 <prvGetNextExpireTime+0x44>)
 8003e54:	681b      	ldr	r3, [r3, #0]
 8003e56:	68db      	ldr	r3, [r3, #12]
 8003e58:	681b      	ldr	r3, [r3, #0]
 8003e5a:	60fb      	str	r3, [r7, #12]
 8003e5c:	e001      	b.n	8003e62 <prvGetNextExpireTime+0x36>
 8003e5e:	2300      	movs	r3, #0
 8003e60:	60fb      	str	r3, [r7, #12]
 8003e62:	68fb      	ldr	r3, [r7, #12]
 8003e64:	4618      	mov	r0, r3
 8003e66:	3714      	adds	r7, #20
 8003e68:	46bd      	mov	sp, r7
 8003e6a:	bc80      	pop	{r7}
 8003e6c:	4770      	bx	lr
 8003e6e:	bf00      	nop
 8003e70:	20000b8c 	.word	0x20000b8c

08003e74 <prvSampleTimeNow>:
 8003e74:	b580      	push	{r7, lr}
 8003e76:	b084      	sub	sp, #16
 8003e78:	af00      	add	r7, sp, #0
 8003e7a:	6078      	str	r0, [r7, #4]
 8003e7c:	f7ff fa72 	bl	8003364 <xTaskGetTickCount>
 8003e80:	60f8      	str	r0, [r7, #12]
 8003e82:	4b0b      	ldr	r3, [pc, #44]	; (8003eb0 <prvSampleTimeNow+0x3c>)
 8003e84:	681b      	ldr	r3, [r3, #0]
 8003e86:	68fa      	ldr	r2, [r7, #12]
 8003e88:	429a      	cmp	r2, r3
 8003e8a:	d205      	bcs.n	8003e98 <prvSampleTimeNow+0x24>
 8003e8c:	f000 f904 	bl	8004098 <prvSwitchTimerLists>
 8003e90:	687b      	ldr	r3, [r7, #4]
 8003e92:	2201      	movs	r2, #1
 8003e94:	601a      	str	r2, [r3, #0]
 8003e96:	e002      	b.n	8003e9e <prvSampleTimeNow+0x2a>
 8003e98:	687b      	ldr	r3, [r7, #4]
 8003e9a:	2200      	movs	r2, #0
 8003e9c:	601a      	str	r2, [r3, #0]
 8003e9e:	4a04      	ldr	r2, [pc, #16]	; (8003eb0 <prvSampleTimeNow+0x3c>)
 8003ea0:	68fb      	ldr	r3, [r7, #12]
 8003ea2:	6013      	str	r3, [r2, #0]
 8003ea4:	68fb      	ldr	r3, [r7, #12]
 8003ea6:	4618      	mov	r0, r3
 8003ea8:	3710      	adds	r7, #16
 8003eaa:	46bd      	mov	sp, r7
 8003eac:	bd80      	pop	{r7, pc}
 8003eae:	bf00      	nop
 8003eb0:	20000b9c 	.word	0x20000b9c

08003eb4 <prvInsertTimerInActiveList>:
 8003eb4:	b580      	push	{r7, lr}
 8003eb6:	b086      	sub	sp, #24
 8003eb8:	af00      	add	r7, sp, #0
 8003eba:	60f8      	str	r0, [r7, #12]
 8003ebc:	60b9      	str	r1, [r7, #8]
 8003ebe:	607a      	str	r2, [r7, #4]
 8003ec0:	603b      	str	r3, [r7, #0]
 8003ec2:	2300      	movs	r3, #0
 8003ec4:	617b      	str	r3, [r7, #20]
 8003ec6:	68fb      	ldr	r3, [r7, #12]
 8003ec8:	68ba      	ldr	r2, [r7, #8]
 8003eca:	605a      	str	r2, [r3, #4]
 8003ecc:	68fb      	ldr	r3, [r7, #12]
 8003ece:	68fa      	ldr	r2, [r7, #12]
 8003ed0:	611a      	str	r2, [r3, #16]
 8003ed2:	68ba      	ldr	r2, [r7, #8]
 8003ed4:	687b      	ldr	r3, [r7, #4]
 8003ed6:	429a      	cmp	r2, r3
 8003ed8:	d812      	bhi.n	8003f00 <prvInsertTimerInActiveList+0x4c>
 8003eda:	687a      	ldr	r2, [r7, #4]
 8003edc:	683b      	ldr	r3, [r7, #0]
 8003ede:	1ad2      	subs	r2, r2, r3
 8003ee0:	68fb      	ldr	r3, [r7, #12]
 8003ee2:	699b      	ldr	r3, [r3, #24]
 8003ee4:	429a      	cmp	r2, r3
 8003ee6:	d302      	bcc.n	8003eee <prvInsertTimerInActiveList+0x3a>
 8003ee8:	2301      	movs	r3, #1
 8003eea:	617b      	str	r3, [r7, #20]
 8003eec:	e01b      	b.n	8003f26 <prvInsertTimerInActiveList+0x72>
 8003eee:	4b10      	ldr	r3, [pc, #64]	; (8003f30 <prvInsertTimerInActiveList+0x7c>)
 8003ef0:	681a      	ldr	r2, [r3, #0]
 8003ef2:	68fb      	ldr	r3, [r7, #12]
 8003ef4:	3304      	adds	r3, #4
 8003ef6:	4619      	mov	r1, r3
 8003ef8:	4610      	mov	r0, r2
 8003efa:	f7fe f9cd 	bl	8002298 <vListInsert>
 8003efe:	e012      	b.n	8003f26 <prvInsertTimerInActiveList+0x72>
 8003f00:	687a      	ldr	r2, [r7, #4]
 8003f02:	683b      	ldr	r3, [r7, #0]
 8003f04:	429a      	cmp	r2, r3
 8003f06:	d206      	bcs.n	8003f16 <prvInsertTimerInActiveList+0x62>
 8003f08:	68ba      	ldr	r2, [r7, #8]
 8003f0a:	683b      	ldr	r3, [r7, #0]
 8003f0c:	429a      	cmp	r2, r3
 8003f0e:	d302      	bcc.n	8003f16 <prvInsertTimerInActiveList+0x62>
 8003f10:	2301      	movs	r3, #1
 8003f12:	617b      	str	r3, [r7, #20]
 8003f14:	e007      	b.n	8003f26 <prvInsertTimerInActiveList+0x72>
 8003f16:	4b07      	ldr	r3, [pc, #28]	; (8003f34 <prvInsertTimerInActiveList+0x80>)
 8003f18:	681a      	ldr	r2, [r3, #0]
 8003f1a:	68fb      	ldr	r3, [r7, #12]
 8003f1c:	3304      	adds	r3, #4
 8003f1e:	4619      	mov	r1, r3
 8003f20:	4610      	mov	r0, r2
 8003f22:	f7fe f9b9 	bl	8002298 <vListInsert>
 8003f26:	697b      	ldr	r3, [r7, #20]
 8003f28:	4618      	mov	r0, r3
 8003f2a:	3718      	adds	r7, #24
 8003f2c:	46bd      	mov	sp, r7
 8003f2e:	bd80      	pop	{r7, pc}
 8003f30:	20000b90 	.word	0x20000b90
 8003f34:	20000b8c 	.word	0x20000b8c

08003f38 <prvProcessReceivedCommands>:
 8003f38:	b580      	push	{r7, lr}
 8003f3a:	b08e      	sub	sp, #56	; 0x38
 8003f3c:	af02      	add	r7, sp, #8
 8003f3e:	e099      	b.n	8004074 <prvProcessReceivedCommands+0x13c>
 8003f40:	687b      	ldr	r3, [r7, #4]
 8003f42:	2b00      	cmp	r3, #0
 8003f44:	da17      	bge.n	8003f76 <prvProcessReceivedCommands+0x3e>
 8003f46:	1d3b      	adds	r3, r7, #4
 8003f48:	3304      	adds	r3, #4
 8003f4a:	62fb      	str	r3, [r7, #44]	; 0x2c
 8003f4c:	6afb      	ldr	r3, [r7, #44]	; 0x2c
 8003f4e:	2b00      	cmp	r3, #0
 8003f50:	d109      	bne.n	8003f66 <prvProcessReceivedCommands+0x2e>
 8003f52:	f04f 0350 	mov.w	r3, #80	; 0x50
 8003f56:	f383 8811 	msr	BASEPRI, r3
 8003f5a:	f3bf 8f6f 	isb	sy
 8003f5e:	f3bf 8f4f 	dsb	sy
 8003f62:	61fb      	str	r3, [r7, #28]
 8003f64:	e7fe      	b.n	8003f64 <prvProcessReceivedCommands+0x2c>
 8003f66:	6afb      	ldr	r3, [r7, #44]	; 0x2c
 8003f68:	681b      	ldr	r3, [r3, #0]
 8003f6a:	6afa      	ldr	r2, [r7, #44]	; 0x2c
 8003f6c:	6850      	ldr	r0, [r2, #4]
 8003f6e:	6afa      	ldr	r2, [r7, #44]	; 0x2c
 8003f70:	6892      	ldr	r2, [r2, #8]
 8003f72:	4611      	mov	r1, r2
 8003f74:	4798      	blx	r3
 8003f76:	687b      	ldr	r3, [r7, #4]
 8003f78:	2b00      	cmp	r3, #0
 8003f7a:	db7a      	blt.n	8004072 <prvProcessReceivedCommands+0x13a>
 8003f7c:	68fb      	ldr	r3, [r7, #12]
 8003f7e:	62bb      	str	r3, [r7, #40]	; 0x28
 8003f80:	6abb      	ldr	r3, [r7, #40]	; 0x28
 8003f82:	695b      	ldr	r3, [r3, #20]
 8003f84:	2b00      	cmp	r3, #0
 8003f86:	d004      	beq.n	8003f92 <prvProcessReceivedCommands+0x5a>
 8003f88:	6abb      	ldr	r3, [r7, #40]	; 0x28
 8003f8a:	3304      	adds	r3, #4
 8003f8c:	4618      	mov	r0, r3
 8003f8e:	f7fe f9bb 	bl	8002308 <uxListRemove>
 8003f92:	463b      	mov	r3, r7
 8003f94:	4618      	mov	r0, r3
 8003f96:	f7ff ff6d 	bl	8003e74 <prvSampleTimeNow>
 8003f9a:	6278      	str	r0, [r7, #36]	; 0x24
 8003f9c:	687b      	ldr	r3, [r7, #4]
 8003f9e:	2b09      	cmp	r3, #9
 8003fa0:	d868      	bhi.n	8004074 <prvProcessReceivedCommands+0x13c>
 8003fa2:	a201      	add	r2, pc, #4	; (adr r2, 8003fa8 <prvProcessReceivedCommands+0x70>)
 8003fa4:	f852 f023 	ldr.w	pc, [r2, r3, lsl #2]
 8003fa8:	08003fd1 	.word	0x08003fd1
 8003fac:	08003fd1 	.word	0x08003fd1
 8003fb0:	08003fd1 	.word	0x08003fd1
 8003fb4:	08004075 	.word	0x08004075
 8003fb8:	0800402b 	.word	0x0800402b
 8003fbc:	08004061 	.word	0x08004061
 8003fc0:	08003fd1 	.word	0x08003fd1
 8003fc4:	08003fd1 	.word	0x08003fd1
 8003fc8:	08004075 	.word	0x08004075
 8003fcc:	0800402b 	.word	0x0800402b
 8003fd0:	68ba      	ldr	r2, [r7, #8]
 8003fd2:	6abb      	ldr	r3, [r7, #40]	; 0x28
 8003fd4:	699b      	ldr	r3, [r3, #24]
 8003fd6:	18d1      	adds	r1, r2, r3
 8003fd8:	68bb      	ldr	r3, [r7, #8]
 8003fda:	6a7a      	ldr	r2, [r7, #36]	; 0x24
 8003fdc:	6ab8      	ldr	r0, [r7, #40]	; 0x28
 8003fde:	f7ff ff69 	bl	8003eb4 <prvInsertTimerInActiveList>
 8003fe2:	4603      	mov	r3, r0
 8003fe4:	2b00      	cmp	r3, #0
 8003fe6:	d045      	beq.n	8004074 <prvProcessReceivedCommands+0x13c>
 8003fe8:	6abb      	ldr	r3, [r7, #40]	; 0x28
 8003fea:	6a5b      	ldr	r3, [r3, #36]	; 0x24
 8003fec:	6ab8      	ldr	r0, [r7, #40]	; 0x28
 8003fee:	4798      	blx	r3
 8003ff0:	6abb      	ldr	r3, [r7, #40]	; 0x28
 8003ff2:	69db      	ldr	r3, [r3, #28]
 8003ff4:	2b01      	cmp	r3, #1
 8003ff6:	d13d      	bne.n	8004074 <prvProcessReceivedCommands+0x13c>
 8003ff8:	68ba      	ldr	r2, [r7, #8]
 8003ffa:	6abb      	ldr	r3, [r7, #40]	; 0x28
 8003ffc:	699b      	ldr	r3, [r3, #24]
 8003ffe:	441a      	add	r2, r3
 8004000:	2300      	movs	r3, #0
 8004002:	9300      	str	r3, [sp, #0]
 8004004:	2300      	movs	r3, #0
 8004006:	2100      	movs	r1, #0
 8004008:	6ab8      	ldr	r0, [r7, #40]	; 0x28
 800400a:	f7ff fe23 	bl	8003c54 <xTimerGenericCommand>
 800400e:	6238      	str	r0, [r7, #32]
 8004010:	6a3b      	ldr	r3, [r7, #32]
 8004012:	2b00      	cmp	r3, #0
 8004014:	d12e      	bne.n	8004074 <prvProcessReceivedCommands+0x13c>
 8004016:	f04f 0350 	mov.w	r3, #80	; 0x50
 800401a:	f383 8811 	msr	BASEPRI, r3
 800401e:	f3bf 8f6f 	isb	sy
 8004022:	f3bf 8f4f 	dsb	sy
 8004026:	61bb      	str	r3, [r7, #24]
 8004028:	e7fe      	b.n	8004028 <prvProcessReceivedCommands+0xf0>
 800402a:	68ba      	ldr	r2, [r7, #8]
 800402c:	6abb      	ldr	r3, [r7, #40]	; 0x28
 800402e:	619a      	str	r2, [r3, #24]
 8004030:	6abb      	ldr	r3, [r7, #40]	; 0x28
 8004032:	699b      	ldr	r3, [r3, #24]
 8004034:	2b00      	cmp	r3, #0
 8004036:	d109      	bne.n	800404c <prvProcessReceivedCommands+0x114>
 8004038:	f04f 0350 	mov.w	r3, #80	; 0x50
 800403c:	f383 8811 	msr	BASEPRI, r3
 8004040:	f3bf 8f6f 	isb	sy
 8004044:	f3bf 8f4f 	dsb	sy
 8004048:	617b      	str	r3, [r7, #20]
 800404a:	e7fe      	b.n	800404a <prvProcessReceivedCommands+0x112>
 800404c:	6abb      	ldr	r3, [r7, #40]	; 0x28
 800404e:	699a      	ldr	r2, [r3, #24]
 8004050:	6a7b      	ldr	r3, [r7, #36]	; 0x24
 8004052:	18d1      	adds	r1, r2, r3
 8004054:	6a7b      	ldr	r3, [r7, #36]	; 0x24
 8004056:	6a7a      	ldr	r2, [r7, #36]	; 0x24
 8004058:	6ab8      	ldr	r0, [r7, #40]	; 0x28
 800405a:	f7ff ff2b 	bl	8003eb4 <prvInsertTimerInActiveList>
 800405e:	e009      	b.n	8004074 <prvProcessReceivedCommands+0x13c>
 8004060:	6abb      	ldr	r3, [r7, #40]	; 0x28
 8004062:	f893 302c 	ldrb.w	r3, [r3, #44]	; 0x2c
 8004066:	2b00      	cmp	r3, #0
 8004068:	d104      	bne.n	8004074 <prvProcessReceivedCommands+0x13c>
 800406a:	6ab8      	ldr	r0, [r7, #40]	; 0x28
 800406c:	f000 fb54 	bl	8004718 <vPortFree>
 8004070:	e000      	b.n	8004074 <prvProcessReceivedCommands+0x13c>
 8004072:	bf00      	nop
 8004074:	4b07      	ldr	r3, [pc, #28]	; (8004094 <prvProcessReceivedCommands+0x15c>)
 8004076:	681b      	ldr	r3, [r3, #0]
 8004078:	1d39      	adds	r1, r7, #4
 800407a:	2200      	movs	r2, #0
 800407c:	4618      	mov	r0, r3
 800407e:	f7fe fc35 	bl	80028ec <xQueueReceive>
 8004082:	4603      	mov	r3, r0
 8004084:	2b00      	cmp	r3, #0
 8004086:	f47f af5b 	bne.w	8003f40 <prvProcessReceivedCommands+0x8>
 800408a:	bf00      	nop
 800408c:	3730      	adds	r7, #48	; 0x30
 800408e:	46bd      	mov	sp, r7
 8004090:	bd80      	pop	{r7, pc}
 8004092:	bf00      	nop
 8004094:	20000b94 	.word	0x20000b94

08004098 <prvSwitchTimerLists>:
 8004098:	b580      	push	{r7, lr}
 800409a:	b088      	sub	sp, #32
 800409c:	af02      	add	r7, sp, #8
 800409e:	e044      	b.n	800412a <prvSwitchTimerLists+0x92>
 80040a0:	4b2b      	ldr	r3, [pc, #172]	; (8004150 <prvSwitchTimerLists+0xb8>)
 80040a2:	681b      	ldr	r3, [r3, #0]
 80040a4:	68db      	ldr	r3, [r3, #12]
 80040a6:	681b      	ldr	r3, [r3, #0]
 80040a8:	613b      	str	r3, [r7, #16]
 80040aa:	4b29      	ldr	r3, [pc, #164]	; (8004150 <prvSwitchTimerLists+0xb8>)
 80040ac:	681b      	ldr	r3, [r3, #0]
 80040ae:	68db      	ldr	r3, [r3, #12]
 80040b0:	68db      	ldr	r3, [r3, #12]
 80040b2:	60fb      	str	r3, [r7, #12]
 80040b4:	68fb      	ldr	r3, [r7, #12]
 80040b6:	3304      	adds	r3, #4
 80040b8:	4618      	mov	r0, r3
 80040ba:	f7fe f925 	bl	8002308 <uxListRemove>
 80040be:	68fb      	ldr	r3, [r7, #12]
 80040c0:	6a5b      	ldr	r3, [r3, #36]	; 0x24
 80040c2:	68f8      	ldr	r0, [r7, #12]
 80040c4:	4798      	blx	r3
 80040c6:	68fb      	ldr	r3, [r7, #12]
 80040c8:	69db      	ldr	r3, [r3, #28]
 80040ca:	2b01      	cmp	r3, #1
 80040cc:	d12d      	bne.n	800412a <prvSwitchTimerLists+0x92>
 80040ce:	68fb      	ldr	r3, [r7, #12]
 80040d0:	699b      	ldr	r3, [r3, #24]
 80040d2:	693a      	ldr	r2, [r7, #16]
 80040d4:	4413      	add	r3, r2
 80040d6:	60bb      	str	r3, [r7, #8]
 80040d8:	68ba      	ldr	r2, [r7, #8]
 80040da:	693b      	ldr	r3, [r7, #16]
 80040dc:	429a      	cmp	r2, r3
 80040de:	d90e      	bls.n	80040fe <prvSwitchTimerLists+0x66>
 80040e0:	68fb      	ldr	r3, [r7, #12]
 80040e2:	68ba      	ldr	r2, [r7, #8]
 80040e4:	605a      	str	r2, [r3, #4]
 80040e6:	68fb      	ldr	r3, [r7, #12]
 80040e8:	68fa      	ldr	r2, [r7, #12]
 80040ea:	611a      	str	r2, [r3, #16]
 80040ec:	4b18      	ldr	r3, [pc, #96]	; (8004150 <prvSwitchTimerLists+0xb8>)
 80040ee:	681a      	ldr	r2, [r3, #0]
 80040f0:	68fb      	ldr	r3, [r7, #12]
 80040f2:	3304      	adds	r3, #4
 80040f4:	4619      	mov	r1, r3
 80040f6:	4610      	mov	r0, r2
 80040f8:	f7fe f8ce 	bl	8002298 <vListInsert>
 80040fc:	e015      	b.n	800412a <prvSwitchTimerLists+0x92>
 80040fe:	2300      	movs	r3, #0
 8004100:	9300      	str	r3, [sp, #0]
 8004102:	2300      	movs	r3, #0
 8004104:	693a      	ldr	r2, [r7, #16]
 8004106:	2100      	movs	r1, #0
 8004108:	68f8      	ldr	r0, [r7, #12]
 800410a:	f7ff fda3 	bl	8003c54 <xTimerGenericCommand>
 800410e:	6078      	str	r0, [r7, #4]
 8004110:	687b      	ldr	r3, [r7, #4]
 8004112:	2b00      	cmp	r3, #0
 8004114:	d109      	bne.n	800412a <prvSwitchTimerLists+0x92>
 8004116:	f04f 0350 	mov.w	r3, #80	; 0x50
 800411a:	f383 8811 	msr	BASEPRI, r3
 800411e:	f3bf 8f6f 	isb	sy
 8004122:	f3bf 8f4f 	dsb	sy
 8004126:	603b      	str	r3, [r7, #0]
 8004128:	e7fe      	b.n	8004128 <prvSwitchTimerLists+0x90>
 800412a:	4b09      	ldr	r3, [pc, #36]	; (8004150 <prvSwitchTimerLists+0xb8>)
 800412c:	681b      	ldr	r3, [r3, #0]
 800412e:	681b      	ldr	r3, [r3, #0]
 8004130:	2b00      	cmp	r3, #0
 8004132:	d1b5      	bne.n	80040a0 <prvSwitchTimerLists+0x8>
 8004134:	4b06      	ldr	r3, [pc, #24]	; (8004150 <prvSwitchTimerLists+0xb8>)
 8004136:	681b      	ldr	r3, [r3, #0]
 8004138:	617b      	str	r3, [r7, #20]
 800413a:	4b06      	ldr	r3, [pc, #24]	; (8004154 <prvSwitchTimerLists+0xbc>)
 800413c:	681b      	ldr	r3, [r3, #0]
 800413e:	4a04      	ldr	r2, [pc, #16]	; (8004150 <prvSwitchTimerLists+0xb8>)
 8004140:	6013      	str	r3, [r2, #0]
 8004142:	4a04      	ldr	r2, [pc, #16]	; (8004154 <prvSwitchTimerLists+0xbc>)
 8004144:	697b      	ldr	r3, [r7, #20]
 8004146:	6013      	str	r3, [r2, #0]
 8004148:	bf00      	nop
 800414a:	3718      	adds	r7, #24
 800414c:	46bd      	mov	sp, r7
 800414e:	bd80      	pop	{r7, pc}
 8004150:	20000b8c 	.word	0x20000b8c
 8004154:	20000b90 	.word	0x20000b90

08004158 <prvCheckForValidListAndQueue>:
 8004158:	b580      	push	{r7, lr}
 800415a:	b082      	sub	sp, #8
 800415c:	af02      	add	r7, sp, #8
 800415e:	f000 f923 	bl	80043a8 <vPortEnterCritical>
 8004162:	4b15      	ldr	r3, [pc, #84]	; (80041b8 <prvCheckForValidListAndQueue+0x60>)
 8004164:	681b      	ldr	r3, [r3, #0]
 8004166:	2b00      	cmp	r3, #0
 8004168:	d120      	bne.n	80041ac <prvCheckForValidListAndQueue+0x54>
 800416a:	4814      	ldr	r0, [pc, #80]	; (80041bc <prvCheckForValidListAndQueue+0x64>)
 800416c:	f7fe f846 	bl	80021fc <vListInitialise>
 8004170:	4813      	ldr	r0, [pc, #76]	; (80041c0 <prvCheckForValidListAndQueue+0x68>)
 8004172:	f7fe f843 	bl	80021fc <vListInitialise>
 8004176:	4b13      	ldr	r3, [pc, #76]	; (80041c4 <prvCheckForValidListAndQueue+0x6c>)
 8004178:	4a10      	ldr	r2, [pc, #64]	; (80041bc <prvCheckForValidListAndQueue+0x64>)
 800417a:	601a      	str	r2, [r3, #0]
 800417c:	4b12      	ldr	r3, [pc, #72]	; (80041c8 <prvCheckForValidListAndQueue+0x70>)
 800417e:	4a10      	ldr	r2, [pc, #64]	; (80041c0 <prvCheckForValidListAndQueue+0x68>)
 8004180:	601a      	str	r2, [r3, #0]
 8004182:	2300      	movs	r3, #0
 8004184:	9300      	str	r3, [sp, #0]
 8004186:	4b11      	ldr	r3, [pc, #68]	; (80041cc <prvCheckForValidListAndQueue+0x74>)
 8004188:	4a11      	ldr	r2, [pc, #68]	; (80041d0 <prvCheckForValidListAndQueue+0x78>)
 800418a:	2110      	movs	r1, #16
 800418c:	200a      	movs	r0, #10
 800418e:	f7fe f94d 	bl	800242c <xQueueGenericCreateStatic>
 8004192:	4602      	mov	r2, r0
 8004194:	4b08      	ldr	r3, [pc, #32]	; (80041b8 <prvCheckForValidListAndQueue+0x60>)
 8004196:	601a      	str	r2, [r3, #0]
 8004198:	4b07      	ldr	r3, [pc, #28]	; (80041b8 <prvCheckForValidListAndQueue+0x60>)
 800419a:	681b      	ldr	r3, [r3, #0]
 800419c:	2b00      	cmp	r3, #0
 800419e:	d005      	beq.n	80041ac <prvCheckForValidListAndQueue+0x54>
 80041a0:	4b05      	ldr	r3, [pc, #20]	; (80041b8 <prvCheckForValidListAndQueue+0x60>)
 80041a2:	681b      	ldr	r3, [r3, #0]
 80041a4:	490b      	ldr	r1, [pc, #44]	; (80041d4 <prvCheckForValidListAndQueue+0x7c>)
 80041a6:	4618      	mov	r0, r3
 80041a8:	f7fe fdaa 	bl	8002d00 <vQueueAddToRegistry>
 80041ac:	f000 f92a 	bl	8004404 <vPortExitCritical>
 80041b0:	bf00      	nop
 80041b2:	46bd      	mov	sp, r7
 80041b4:	bd80      	pop	{r7, pc}
 80041b6:	bf00      	nop
 80041b8:	20000b94 	.word	0x20000b94
 80041bc:	20000b64 	.word	0x20000b64
 80041c0:	20000b78 	.word	0x20000b78
 80041c4:	20000b8c 	.word	0x20000b8c
 80041c8:	20000b90 	.word	0x20000b90
 80041cc:	20000c40 	.word	0x20000c40
 80041d0:	20000ba0 	.word	0x20000ba0
 80041d4:	080053b4 	.word	0x080053b4

080041d8 <pxPortInitialiseStack>:
 80041d8:	b480      	push	{r7}
 80041da:	b085      	sub	sp, #20
 80041dc:	af00      	add	r7, sp, #0
 80041de:	60f8      	str	r0, [r7, #12]
 80041e0:	60b9      	str	r1, [r7, #8]
 80041e2:	607a      	str	r2, [r7, #4]
 80041e4:	68fb      	ldr	r3, [r7, #12]
 80041e6:	3b04      	subs	r3, #4
 80041e8:	60fb      	str	r3, [r7, #12]
 80041ea:	68fb      	ldr	r3, [r7, #12]
 80041ec:	f04f 7280 	mov.w	r2, #16777216	; 0x1000000
 80041f0:	601a      	str	r2, [r3, #0]
 80041f2:	68fb      	ldr	r3, [r7, #12]
 80041f4:	3b04      	subs	r3, #4
 80041f6:	60fb      	str	r3, [r7, #12]
 80041f8:	68bb      	ldr	r3, [r7, #8]
 80041fa:	f023 0201 	bic.w	r2, r3, #1
 80041fe:	68fb      	ldr	r3, [r7, #12]
 8004200:	601a      	str	r2, [r3, #0]
 8004202:	68fb      	ldr	r3, [r7, #12]
 8004204:	3b04      	subs	r3, #4
 8004206:	60fb      	str	r3, [r7, #12]
 8004208:	4a08      	ldr	r2, [pc, #32]	; (800422c <pxPortInitialiseStack+0x54>)
 800420a:	68fb      	ldr	r3, [r7, #12]
 800420c:	601a      	str	r2, [r3, #0]
 800420e:	68fb      	ldr	r3, [r7, #12]
 8004210:	3b14      	subs	r3, #20
 8004212:	60fb      	str	r3, [r7, #12]
 8004214:	687a      	ldr	r2, [r7, #4]
 8004216:	68fb      	ldr	r3, [r7, #12]
 8004218:	601a      	str	r2, [r3, #0]
 800421a:	68fb      	ldr	r3, [r7, #12]
 800421c:	3b20      	subs	r3, #32
 800421e:	60fb      	str	r3, [r7, #12]
 8004220:	68fb      	ldr	r3, [r7, #12]
 8004222:	4618      	mov	r0, r3
 8004224:	3714      	adds	r7, #20
 8004226:	46bd      	mov	sp, r7
 8004228:	bc80      	pop	{r7}
 800422a:	4770      	bx	lr
 800422c:	08004231 	.word	0x08004231

08004230 <prvTaskExitError>:
 8004230:	b480      	push	{r7}
 8004232:	b085      	sub	sp, #20
 8004234:	af00      	add	r7, sp, #0
 8004236:	2300      	movs	r3, #0
 8004238:	607b      	str	r3, [r7, #4]
 800423a:	4b10      	ldr	r3, [pc, #64]	; (800427c <prvTaskExitError+0x4c>)
 800423c:	681b      	ldr	r3, [r3, #0]
 800423e:	f1b3 3fff 	cmp.w	r3, #4294967295
 8004242:	d009      	beq.n	8004258 <prvTaskExitError+0x28>
 8004244:	f04f 0350 	mov.w	r3, #80	; 0x50
 8004248:	f383 8811 	msr	BASEPRI, r3
 800424c:	f3bf 8f6f 	isb	sy
 8004250:	f3bf 8f4f 	dsb	sy
 8004254:	60fb      	str	r3, [r7, #12]
 8004256:	e7fe      	b.n	8004256 <prvTaskExitError+0x26>
 8004258:	f04f 0350 	mov.w	r3, #80	; 0x50
 800425c:	f383 8811 	msr	BASEPRI, r3
 8004260:	f3bf 8f6f 	isb	sy
 8004264:	f3bf 8f4f 	dsb	sy
 8004268:	60bb      	str	r3, [r7, #8]
 800426a:	bf00      	nop
 800426c:	687b      	ldr	r3, [r7, #4]
 800426e:	2b00      	cmp	r3, #0
 8004270:	d0fc      	beq.n	800426c <prvTaskExitError+0x3c>
 8004272:	bf00      	nop
 8004274:	3714      	adds	r7, #20
 8004276:	46bd      	mov	sp, r7
 8004278:	bc80      	pop	{r7}
 800427a:	4770      	bx	lr
 800427c:	20000014 	.word	0x20000014

08004280 <SVC_Handler>:
 8004280:	4b07      	ldr	r3, [pc, #28]	; (80042a0 <pxCurrentTCBConst2>)
 8004282:	6819      	ldr	r1, [r3, #0]
 8004284:	6808      	ldr	r0, [r1, #0]
 8004286:	e8b0 0ff0 	ldmia.w	r0!, {r4, r5, r6, r7, r8, r9, sl, fp}
 800428a:	f380 8809 	msr	PSP, r0
 800428e:	f3bf 8f6f 	isb	sy
 8004292:	f04f 0000 	mov.w	r0, #0
 8004296:	f380 8811 	msr	BASEPRI, r0
 800429a:	f04e 0e0d 	orr.w	lr, lr, #13
 800429e:	4770      	bx	lr

080042a0 <pxCurrentTCBConst2>:
 80042a0:	20000664 	.word	0x20000664
 80042a4:	bf00      	nop
 80042a6:	bf00      	nop

080042a8 <prvPortStartFirstTask>:
 80042a8:	4806      	ldr	r0, [pc, #24]	; (80042c4 <prvPortStartFirstTask+0x1c>)
 80042aa:	6800      	ldr	r0, [r0, #0]
 80042ac:	6800      	ldr	r0, [r0, #0]
 80042ae:	f380 8808 	msr	MSP, r0
 80042b2:	b662      	cpsie	i
 80042b4:	b661      	cpsie	f
 80042b6:	f3bf 8f4f 	dsb	sy
 80042ba:	f3bf 8f6f 	isb	sy
 80042be:	df00      	svc	0
 80042c0:	bf00      	nop
 80042c2:	bf00      	nop
 80042c4:	e000ed08 	.word	0xe000ed08

080042c8 <xPortStartScheduler>:
 80042c8:	b580      	push	{r7, lr}
 80042ca:	b084      	sub	sp, #16
 80042cc:	af00      	add	r7, sp, #0
 80042ce:	4b31      	ldr	r3, [pc, #196]	; (8004394 <xPortStartScheduler+0xcc>)
 80042d0:	60fb      	str	r3, [r7, #12]
 80042d2:	68fb      	ldr	r3, [r7, #12]
 80042d4:	781b      	ldrb	r3, [r3, #0]
 80042d6:	b2db      	uxtb	r3, r3
 80042d8:	607b      	str	r3, [r7, #4]
 80042da:	68fb      	ldr	r3, [r7, #12]
 80042dc:	22ff      	movs	r2, #255	; 0xff
 80042de:	701a      	strb	r2, [r3, #0]
 80042e0:	68fb      	ldr	r3, [r7, #12]
 80042e2:	781b      	ldrb	r3, [r3, #0]
 80042e4:	b2db      	uxtb	r3, r3
 80042e6:	70fb      	strb	r3, [r7, #3]
 80042e8:	78fb      	ldrb	r3, [r7, #3]
 80042ea:	b2db      	uxtb	r3, r3
 80042ec:	f003 0350 	and.w	r3, r3, #80	; 0x50
 80042f0:	b2da      	uxtb	r2, r3
 80042f2:	4b29      	ldr	r3, [pc, #164]	; (8004398 <xPortStartScheduler+0xd0>)
 80042f4:	701a      	strb	r2, [r3, #0]
 80042f6:	4b29      	ldr	r3, [pc, #164]	; (800439c <xPortStartScheduler+0xd4>)
 80042f8:	2207      	movs	r2, #7
 80042fa:	601a      	str	r2, [r3, #0]
 80042fc:	e009      	b.n	8004312 <xPortStartScheduler+0x4a>
 80042fe:	4b27      	ldr	r3, [pc, #156]	; (800439c <xPortStartScheduler+0xd4>)
 8004300:	681b      	ldr	r3, [r3, #0]
 8004302:	3b01      	subs	r3, #1
 8004304:	4a25      	ldr	r2, [pc, #148]	; (800439c <xPortStartScheduler+0xd4>)
 8004306:	6013      	str	r3, [r2, #0]
 8004308:	78fb      	ldrb	r3, [r7, #3]
 800430a:	b2db      	uxtb	r3, r3
 800430c:	005b      	lsls	r3, r3, #1
 800430e:	b2db      	uxtb	r3, r3
 8004310:	70fb      	strb	r3, [r7, #3]
 8004312:	78fb      	ldrb	r3, [r7, #3]
 8004314:	b2db      	uxtb	r3, r3
 8004316:	f003 0380 	and.w	r3, r3, #128	; 0x80
 800431a:	2b80      	cmp	r3, #128	; 0x80
 800431c:	d0ef      	beq.n	80042fe <xPortStartScheduler+0x36>
 800431e:	4b1f      	ldr	r3, [pc, #124]	; (800439c <xPortStartScheduler+0xd4>)
 8004320:	681b      	ldr	r3, [r3, #0]
 8004322:	f1c3 0307 	rsb	r3, r3, #7
 8004326:	2b04      	cmp	r3, #4
 8004328:	d009      	beq.n	800433e <xPortStartScheduler+0x76>
 800432a:	f04f 0350 	mov.w	r3, #80	; 0x50
 800432e:	f383 8811 	msr	BASEPRI, r3
 8004332:	f3bf 8f6f 	isb	sy
 8004336:	f3bf 8f4f 	dsb	sy
 800433a:	60bb      	str	r3, [r7, #8]
 800433c:	e7fe      	b.n	800433c <xPortStartScheduler+0x74>
 800433e:	4b17      	ldr	r3, [pc, #92]	; (800439c <xPortStartScheduler+0xd4>)
 8004340:	681b      	ldr	r3, [r3, #0]
 8004342:	021b      	lsls	r3, r3, #8
 8004344:	4a15      	ldr	r2, [pc, #84]	; (800439c <xPortStartScheduler+0xd4>)
 8004346:	6013      	str	r3, [r2, #0]
 8004348:	4b14      	ldr	r3, [pc, #80]	; (800439c <xPortStartScheduler+0xd4>)
 800434a:	681b      	ldr	r3, [r3, #0]
 800434c:	f403 63e0 	and.w	r3, r3, #1792	; 0x700
 8004350:	4a12      	ldr	r2, [pc, #72]	; (800439c <xPortStartScheduler+0xd4>)
 8004352:	6013      	str	r3, [r2, #0]
 8004354:	687b      	ldr	r3, [r7, #4]
 8004356:	b2da      	uxtb	r2, r3
 8004358:	68fb      	ldr	r3, [r7, #12]
 800435a:	701a      	strb	r2, [r3, #0]
 800435c:	4b10      	ldr	r3, [pc, #64]	; (80043a0 <xPortStartScheduler+0xd8>)
 800435e:	681b      	ldr	r3, [r3, #0]
 8004360:	4a0f      	ldr	r2, [pc, #60]	; (80043a0 <xPortStartScheduler+0xd8>)
 8004362:	f443 0370 	orr.w	r3, r3, #15728640	; 0xf00000
 8004366:	6013      	str	r3, [r2, #0]
 8004368:	4b0d      	ldr	r3, [pc, #52]	; (80043a0 <xPortStartScheduler+0xd8>)
 800436a:	681b      	ldr	r3, [r3, #0]
 800436c:	4a0c      	ldr	r2, [pc, #48]	; (80043a0 <xPortStartScheduler+0xd8>)
 800436e:	f043 4370 	orr.w	r3, r3, #4026531840	; 0xf0000000
 8004372:	6013      	str	r3, [r2, #0]
 8004374:	f000 f8b0 	bl	80044d8 <vPortSetupTimerInterrupt>
 8004378:	4b0a      	ldr	r3, [pc, #40]	; (80043a4 <xPortStartScheduler+0xdc>)
 800437a:	2200      	movs	r2, #0
 800437c:	601a      	str	r2, [r3, #0]
 800437e:	f7ff ff93 	bl	80042a8 <prvPortStartFirstTask>
 8004382:	f7ff f8dd 	bl	8003540 <vTaskSwitchContext>
 8004386:	f7ff ff53 	bl	8004230 <prvTaskExitError>
 800438a:	2300      	movs	r3, #0
 800438c:	4618      	mov	r0, r3
 800438e:	3710      	adds	r7, #16
 8004390:	46bd      	mov	sp, r7
 8004392:	bd80      	pop	{r7, pc}
 8004394:	e000e400 	.word	0xe000e400
 8004398:	20000c90 	.word	0x20000c90
 800439c:	20000c94 	.word	0x20000c94
 80043a0:	e000ed20 	.word	0xe000ed20
 80043a4:	20000014 	.word	0x20000014

080043a8 <vPortEnterCritical>:
 80043a8:	b480      	push	{r7}
 80043aa:	b083      	sub	sp, #12
 80043ac:	af00      	add	r7, sp, #0
 80043ae:	f04f 0350 	mov.w	r3, #80	; 0x50
 80043b2:	f383 8811 	msr	BASEPRI, r3
 80043b6:	f3bf 8f6f 	isb	sy
 80043ba:	f3bf 8f4f 	dsb	sy
 80043be:	607b      	str	r3, [r7, #4]
 80043c0:	4b0e      	ldr	r3, [pc, #56]	; (80043fc <vPortEnterCritical+0x54>)
 80043c2:	681b      	ldr	r3, [r3, #0]
 80043c4:	3301      	adds	r3, #1
 80043c6:	4a0d      	ldr	r2, [pc, #52]	; (80043fc <vPortEnterCritical+0x54>)
 80043c8:	6013      	str	r3, [r2, #0]
 80043ca:	4b0c      	ldr	r3, [pc, #48]	; (80043fc <vPortEnterCritical+0x54>)
 80043cc:	681b      	ldr	r3, [r3, #0]
 80043ce:	2b01      	cmp	r3, #1
 80043d0:	d10e      	bne.n	80043f0 <vPortEnterCritical+0x48>
 80043d2:	4b0b      	ldr	r3, [pc, #44]	; (8004400 <vPortEnterCritical+0x58>)
 80043d4:	681b      	ldr	r3, [r3, #0]
 80043d6:	b2db      	uxtb	r3, r3
 80043d8:	2b00      	cmp	r3, #0
 80043da:	d009      	beq.n	80043f0 <vPortEnterCritical+0x48>
 80043dc:	f04f 0350 	mov.w	r3, #80	; 0x50
 80043e0:	f383 8811 	msr	BASEPRI, r3
 80043e4:	f3bf 8f6f 	isb	sy
 80043e8:	f3bf 8f4f 	dsb	sy
 80043ec:	603b      	str	r3, [r7, #0]
 80043ee:	e7fe      	b.n	80043ee <vPortEnterCritical+0x46>
 80043f0:	bf00      	nop
 80043f2:	370c      	adds	r7, #12
 80043f4:	46bd      	mov	sp, r7
 80043f6:	bc80      	pop	{r7}
 80043f8:	4770      	bx	lr
 80043fa:	bf00      	nop
 80043fc:	20000014 	.word	0x20000014
 8004400:	e000ed04 	.word	0xe000ed04

08004404 <vPortExitCritical>:
 8004404:	b480      	push	{r7}
 8004406:	b083      	sub	sp, #12
 8004408:	af00      	add	r7, sp, #0
 800440a:	4b10      	ldr	r3, [pc, #64]	; (800444c <vPortExitCritical+0x48>)
 800440c:	681b      	ldr	r3, [r3, #0]
 800440e:	2b00      	cmp	r3, #0
 8004410:	d109      	bne.n	8004426 <vPortExitCritical+0x22>
 8004412:	f04f 0350 	mov.w	r3, #80	; 0x50
 8004416:	f383 8811 	msr	BASEPRI, r3
 800441a:	f3bf 8f6f 	isb	sy
 800441e:	f3bf 8f4f 	dsb	sy
 8004422:	607b      	str	r3, [r7, #4]
 8004424:	e7fe      	b.n	8004424 <vPortExitCritical+0x20>
 8004426:	4b09      	ldr	r3, [pc, #36]	; (800444c <vPortExitCritical+0x48>)
 8004428:	681b      	ldr	r3, [r3, #0]
 800442a:	3b01      	subs	r3, #1
 800442c:	4a07      	ldr	r2, [pc, #28]	; (800444c <vPortExitCritical+0x48>)
 800442e:	6013      	str	r3, [r2, #0]
 8004430:	4b06      	ldr	r3, [pc, #24]	; (800444c <vPortExitCritical+0x48>)
 8004432:	681b      	ldr	r3, [r3, #0]
 8004434:	2b00      	cmp	r3, #0
 8004436:	d104      	bne.n	8004442 <vPortExitCritical+0x3e>
 8004438:	2300      	movs	r3, #0
 800443a:	603b      	str	r3, [r7, #0]
 800443c:	683b      	ldr	r3, [r7, #0]
 800443e:	f383 8811 	msr	BASEPRI, r3
 8004442:	bf00      	nop
 8004444:	370c      	adds	r7, #12
 8004446:	46bd      	mov	sp, r7
 8004448:	bc80      	pop	{r7}
 800444a:	4770      	bx	lr
 800444c:	20000014 	.word	0x20000014

08004450 <PendSV_Handler>:
 8004450:	f3ef 8009 	mrs	r0, PSP
 8004454:	f3bf 8f6f 	isb	sy
 8004458:	4b0d      	ldr	r3, [pc, #52]	; (8004490 <pxCurrentTCBConst>)
 800445a:	681a      	ldr	r2, [r3, #0]
 800445c:	e920 0ff0 	stmdb	r0!, {r4, r5, r6, r7, r8, r9, sl, fp}
 8004460:	6010      	str	r0, [r2, #0]
 8004462:	e92d 4008 	stmdb	sp!, {r3, lr}
 8004466:	f04f 0050 	mov.w	r0, #80	; 0x50
 800446a:	f380 8811 	msr	BASEPRI, r0
 800446e:	f7ff f867 	bl	8003540 <vTaskSwitchContext>
 8004472:	f04f 0000 	mov.w	r0, #0
 8004476:	f380 8811 	msr	BASEPRI, r0
 800447a:	e8bd 4008 	ldmia.w	sp!, {r3, lr}
 800447e:	6819      	ldr	r1, [r3, #0]
 8004480:	6808      	ldr	r0, [r1, #0]
 8004482:	e8b0 0ff0 	ldmia.w	r0!, {r4, r5, r6, r7, r8, r9, sl, fp}
 8004486:	f380 8809 	msr	PSP, r0
 800448a:	f3bf 8f6f 	isb	sy
 800448e:	4770      	bx	lr

08004490 <pxCurrentTCBConst>:
 8004490:	20000664 	.word	0x20000664
 8004494:	bf00      	nop
 8004496:	bf00      	nop

08004498 <xPortSysTickHandler>:
 8004498:	b580      	push	{r7, lr}
 800449a:	b082      	sub	sp, #8
 800449c:	af00      	add	r7, sp, #0
 800449e:	f04f 0350 	mov.w	r3, #80	; 0x50
 80044a2:	f383 8811 	msr	BASEPRI, r3
 80044a6:	f3bf 8f6f 	isb	sy
 80044aa:	f3bf 8f4f 	dsb	sy
 80044ae:	607b      	str	r3, [r7, #4]
 80044b0:	f7fe ff88 	bl	80033c4 <xTaskIncrementTick>
 80044b4:	4603      	mov	r3, r0
 80044b6:	2b00      	cmp	r3, #0
 80044b8:	d003      	beq.n	80044c2 <xPortSysTickHandler+0x2a>
 80044ba:	4b06      	ldr	r3, [pc, #24]	; (80044d4 <xPortSysTickHandler+0x3c>)
 80044bc:	f04f 5280 	mov.w	r2, #268435456	; 0x10000000
 80044c0:	601a      	str	r2, [r3, #0]
 80044c2:	2300      	movs	r3, #0
 80044c4:	603b      	str	r3, [r7, #0]
 80044c6:	683b      	ldr	r3, [r7, #0]
 80044c8:	f383 8811 	msr	BASEPRI, r3
 80044cc:	bf00      	nop
 80044ce:	3708      	adds	r7, #8
 80044d0:	46bd      	mov	sp, r7
 80044d2:	bd80      	pop	{r7, pc}
 80044d4:	e000ed04 	.word	0xe000ed04

080044d8 <vPortSetupTimerInterrupt>:
 80044d8:	b480      	push	{r7}
 80044da:	af00      	add	r7, sp, #0
 80044dc:	4b0a      	ldr	r3, [pc, #40]	; (8004508 <vPortSetupTimerInterrupt+0x30>)
 80044de:	2200      	movs	r2, #0
 80044e0:	601a      	str	r2, [r3, #0]
 80044e2:	4b0a      	ldr	r3, [pc, #40]	; (800450c <vPortSetupTimerInterrupt+0x34>)
 80044e4:	2200      	movs	r2, #0
 80044e6:	601a      	str	r2, [r3, #0]
 80044e8:	4b09      	ldr	r3, [pc, #36]	; (8004510 <vPortSetupTimerInterrupt+0x38>)
 80044ea:	681b      	ldr	r3, [r3, #0]
 80044ec:	4a09      	ldr	r2, [pc, #36]	; (8004514 <vPortSetupTimerInterrupt+0x3c>)
 80044ee:	fba2 2303 	umull	r2, r3, r2, r3
 80044f2:	099b      	lsrs	r3, r3, #6
 80044f4:	4a08      	ldr	r2, [pc, #32]	; (8004518 <vPortSetupTimerInterrupt+0x40>)
 80044f6:	3b01      	subs	r3, #1
 80044f8:	6013      	str	r3, [r2, #0]
 80044fa:	4b03      	ldr	r3, [pc, #12]	; (8004508 <vPortSetupTimerInterrupt+0x30>)
 80044fc:	2207      	movs	r2, #7
 80044fe:	601a      	str	r2, [r3, #0]
 8004500:	bf00      	nop
 8004502:	46bd      	mov	sp, r7
 8004504:	bc80      	pop	{r7}
 8004506:	4770      	bx	lr
 8004508:	e000e010 	.word	0xe000e010
 800450c:	e000e018 	.word	0xe000e018
 8004510:	20000008 	.word	0x20000008
 8004514:	10624dd3 	.word	0x10624dd3
 8004518:	e000e014 	.word	0xe000e014

0800451c <vPortValidateInterruptPriority>:
 800451c:	b480      	push	{r7}
 800451e:	b085      	sub	sp, #20
 8004520:	af00      	add	r7, sp, #0
 8004522:	f3ef 8305 	mrs	r3, IPSR
 8004526:	60fb      	str	r3, [r7, #12]
 8004528:	68fb      	ldr	r3, [r7, #12]
 800452a:	2b0f      	cmp	r3, #15
 800452c:	d913      	bls.n	8004556 <vPortValidateInterruptPriority+0x3a>
 800452e:	4a15      	ldr	r2, [pc, #84]	; (8004584 <vPortValidateInterruptPriority+0x68>)
 8004530:	68fb      	ldr	r3, [r7, #12]
 8004532:	4413      	add	r3, r2
 8004534:	781b      	ldrb	r3, [r3, #0]
 8004536:	72fb      	strb	r3, [r7, #11]
 8004538:	4b13      	ldr	r3, [pc, #76]	; (8004588 <vPortValidateInterruptPriority+0x6c>)
 800453a:	781b      	ldrb	r3, [r3, #0]
 800453c:	7afa      	ldrb	r2, [r7, #11]
 800453e:	429a      	cmp	r2, r3
 8004540:	d209      	bcs.n	8004556 <vPortValidateInterruptPriority+0x3a>
 8004542:	f04f 0350 	mov.w	r3, #80	; 0x50
 8004546:	f383 8811 	msr	BASEPRI, r3
 800454a:	f3bf 8f6f 	isb	sy
 800454e:	f3bf 8f4f 	dsb	sy
 8004552:	607b      	str	r3, [r7, #4]
 8004554:	e7fe      	b.n	8004554 <vPortValidateInterruptPriority+0x38>
 8004556:	4b0d      	ldr	r3, [pc, #52]	; (800458c <vPortValidateInterruptPriority+0x70>)
 8004558:	681b      	ldr	r3, [r3, #0]
 800455a:	f403 62e0 	and.w	r2, r3, #1792	; 0x700
 800455e:	4b0c      	ldr	r3, [pc, #48]	; (8004590 <vPortValidateInterruptPriority+0x74>)
 8004560:	681b      	ldr	r3, [r3, #0]
 8004562:	429a      	cmp	r2, r3
 8004564:	d909      	bls.n	800457a <vPortValidateInterruptPriority+0x5e>
 8004566:	f04f 0350 	mov.w	r3, #80	; 0x50
 800456a:	f383 8811 	msr	BASEPRI, r3
 800456e:	f3bf 8f6f 	isb	sy
 8004572:	f3bf 8f4f 	dsb	sy
 8004576:	603b      	str	r3, [r7, #0]
 8004578:	e7fe      	b.n	8004578 <vPortValidateInterruptPriority+0x5c>
 800457a:	bf00      	nop
 800457c:	3714      	adds	r7, #20
 800457e:	46bd      	mov	sp, r7
 8004580:	bc80      	pop	{r7}
 8004582:	4770      	bx	lr
 8004584:	e000e3f0 	.word	0xe000e3f0
 8004588:	20000c90 	.word	0x20000c90
 800458c:	e000ed0c 	.word	0xe000ed0c
 8004590:	20000c94 	.word	0x20000c94

08004594 <pvPortMalloc>:
 8004594:	b580      	push	{r7, lr}
 8004596:	b08a      	sub	sp, #40	; 0x28
 8004598:	af00      	add	r7, sp, #0
 800459a:	6078      	str	r0, [r7, #4]
 800459c:	2300      	movs	r3, #0
 800459e:	61fb      	str	r3, [r7, #28]
 80045a0:	f7fe fe36 	bl	8003210 <vTaskSuspendAll>
 80045a4:	4b57      	ldr	r3, [pc, #348]	; (8004704 <pvPortMalloc+0x170>)
 80045a6:	681b      	ldr	r3, [r3, #0]
 80045a8:	2b00      	cmp	r3, #0
 80045aa:	d101      	bne.n	80045b0 <pvPortMalloc+0x1c>
 80045ac:	f000 f90c 	bl	80047c8 <prvHeapInit>
 80045b0:	4b55      	ldr	r3, [pc, #340]	; (8004708 <pvPortMalloc+0x174>)
 80045b2:	681a      	ldr	r2, [r3, #0]
 80045b4:	687b      	ldr	r3, [r7, #4]
 80045b6:	4013      	ands	r3, r2
 80045b8:	2b00      	cmp	r3, #0
 80045ba:	f040 808c 	bne.w	80046d6 <pvPortMalloc+0x142>
 80045be:	687b      	ldr	r3, [r7, #4]
 80045c0:	2b00      	cmp	r3, #0
 80045c2:	d01c      	beq.n	80045fe <pvPortMalloc+0x6a>
 80045c4:	2208      	movs	r2, #8
 80045c6:	687b      	ldr	r3, [r7, #4]
 80045c8:	4413      	add	r3, r2
 80045ca:	607b      	str	r3, [r7, #4]
 80045cc:	687b      	ldr	r3, [r7, #4]
 80045ce:	f003 0307 	and.w	r3, r3, #7
 80045d2:	2b00      	cmp	r3, #0
 80045d4:	d013      	beq.n	80045fe <pvPortMalloc+0x6a>
 80045d6:	687b      	ldr	r3, [r7, #4]
 80045d8:	f023 0307 	bic.w	r3, r3, #7
 80045dc:	3308      	adds	r3, #8
 80045de:	607b      	str	r3, [r7, #4]
 80045e0:	687b      	ldr	r3, [r7, #4]
 80045e2:	f003 0307 	and.w	r3, r3, #7
 80045e6:	2b00      	cmp	r3, #0
 80045e8:	d009      	beq.n	80045fe <pvPortMalloc+0x6a>
 80045ea:	f04f 0350 	mov.w	r3, #80	; 0x50
 80045ee:	f383 8811 	msr	BASEPRI, r3
 80045f2:	f3bf 8f6f 	isb	sy
 80045f6:	f3bf 8f4f 	dsb	sy
 80045fa:	617b      	str	r3, [r7, #20]
 80045fc:	e7fe      	b.n	80045fc <pvPortMalloc+0x68>
 80045fe:	687b      	ldr	r3, [r7, #4]
 8004600:	2b00      	cmp	r3, #0
 8004602:	d068      	beq.n	80046d6 <pvPortMalloc+0x142>
 8004604:	4b41      	ldr	r3, [pc, #260]	; (800470c <pvPortMalloc+0x178>)
 8004606:	681b      	ldr	r3, [r3, #0]
 8004608:	687a      	ldr	r2, [r7, #4]
 800460a:	429a      	cmp	r2, r3
 800460c:	d863      	bhi.n	80046d6 <pvPortMalloc+0x142>
 800460e:	4b40      	ldr	r3, [pc, #256]	; (8004710 <pvPortMalloc+0x17c>)
 8004610:	623b      	str	r3, [r7, #32]
 8004612:	4b3f      	ldr	r3, [pc, #252]	; (8004710 <pvPortMalloc+0x17c>)
 8004614:	681b      	ldr	r3, [r3, #0]
 8004616:	627b      	str	r3, [r7, #36]	; 0x24
 8004618:	e004      	b.n	8004624 <pvPortMalloc+0x90>
 800461a:	6a7b      	ldr	r3, [r7, #36]	; 0x24
 800461c:	623b      	str	r3, [r7, #32]
 800461e:	6a7b      	ldr	r3, [r7, #36]	; 0x24
 8004620:	681b      	ldr	r3, [r3, #0]
 8004622:	627b      	str	r3, [r7, #36]	; 0x24
 8004624:	6a7b      	ldr	r3, [r7, #36]	; 0x24
 8004626:	685b      	ldr	r3, [r3, #4]
 8004628:	687a      	ldr	r2, [r7, #4]
 800462a:	429a      	cmp	r2, r3
 800462c:	d903      	bls.n	8004636 <pvPortMalloc+0xa2>
 800462e:	6a7b      	ldr	r3, [r7, #36]	; 0x24
 8004630:	681b      	ldr	r3, [r3, #0]
 8004632:	2b00      	cmp	r3, #0
 8004634:	d1f1      	bne.n	800461a <pvPortMalloc+0x86>
 8004636:	4b33      	ldr	r3, [pc, #204]	; (8004704 <pvPortMalloc+0x170>)
 8004638:	681b      	ldr	r3, [r3, #0]
 800463a:	6a7a      	ldr	r2, [r7, #36]	; 0x24
 800463c:	429a      	cmp	r2, r3
 800463e:	d04a      	beq.n	80046d6 <pvPortMalloc+0x142>
 8004640:	6a3b      	ldr	r3, [r7, #32]
 8004642:	681b      	ldr	r3, [r3, #0]
 8004644:	2208      	movs	r2, #8
 8004646:	4413      	add	r3, r2
 8004648:	61fb      	str	r3, [r7, #28]
 800464a:	6a7b      	ldr	r3, [r7, #36]	; 0x24
 800464c:	681a      	ldr	r2, [r3, #0]
 800464e:	6a3b      	ldr	r3, [r7, #32]
 8004650:	601a      	str	r2, [r3, #0]
 8004652:	6a7b      	ldr	r3, [r7, #36]	; 0x24
 8004654:	685a      	ldr	r2, [r3, #4]
 8004656:	687b      	ldr	r3, [r7, #4]
 8004658:	1ad2      	subs	r2, r2, r3
 800465a:	2308      	movs	r3, #8
 800465c:	005b      	lsls	r3, r3, #1
 800465e:	429a      	cmp	r2, r3
 8004660:	d91e      	bls.n	80046a0 <pvPortMalloc+0x10c>
 8004662:	6a7a      	ldr	r2, [r7, #36]	; 0x24
 8004664:	687b      	ldr	r3, [r7, #4]
 8004666:	4413      	add	r3, r2
 8004668:	61bb      	str	r3, [r7, #24]
 800466a:	69bb      	ldr	r3, [r7, #24]
 800466c:	f003 0307 	and.w	r3, r3, #7
 8004670:	2b00      	cmp	r3, #0
 8004672:	d009      	beq.n	8004688 <pvPortMalloc+0xf4>
 8004674:	f04f 0350 	mov.w	r3, #80	; 0x50
 8004678:	f383 8811 	msr	BASEPRI, r3
 800467c:	f3bf 8f6f 	isb	sy
 8004680:	f3bf 8f4f 	dsb	sy
 8004684:	613b      	str	r3, [r7, #16]
 8004686:	e7fe      	b.n	8004686 <pvPortMalloc+0xf2>
 8004688:	6a7b      	ldr	r3, [r7, #36]	; 0x24
 800468a:	685a      	ldr	r2, [r3, #4]
 800468c:	687b      	ldr	r3, [r7, #4]
 800468e:	1ad2      	subs	r2, r2, r3
 8004690:	69bb      	ldr	r3, [r7, #24]
 8004692:	605a      	str	r2, [r3, #4]
 8004694:	6a7b      	ldr	r3, [r7, #36]	; 0x24
 8004696:	687a      	ldr	r2, [r7, #4]
 8004698:	605a      	str	r2, [r3, #4]
 800469a:	69b8      	ldr	r0, [r7, #24]
 800469c:	f000 f8f6 	bl	800488c <prvInsertBlockIntoFreeList>
 80046a0:	4b1a      	ldr	r3, [pc, #104]	; (800470c <pvPortMalloc+0x178>)
 80046a2:	681a      	ldr	r2, [r3, #0]
 80046a4:	6a7b      	ldr	r3, [r7, #36]	; 0x24
 80046a6:	685b      	ldr	r3, [r3, #4]
 80046a8:	1ad3      	subs	r3, r2, r3
 80046aa:	4a18      	ldr	r2, [pc, #96]	; (800470c <pvPortMalloc+0x178>)
 80046ac:	6013      	str	r3, [r2, #0]
 80046ae:	4b17      	ldr	r3, [pc, #92]	; (800470c <pvPortMalloc+0x178>)
 80046b0:	681a      	ldr	r2, [r3, #0]
 80046b2:	4b18      	ldr	r3, [pc, #96]	; (8004714 <pvPortMalloc+0x180>)
 80046b4:	681b      	ldr	r3, [r3, #0]
 80046b6:	429a      	cmp	r2, r3
 80046b8:	d203      	bcs.n	80046c2 <pvPortMalloc+0x12e>
 80046ba:	4b14      	ldr	r3, [pc, #80]	; (800470c <pvPortMalloc+0x178>)
 80046bc:	681b      	ldr	r3, [r3, #0]
 80046be:	4a15      	ldr	r2, [pc, #84]	; (8004714 <pvPortMalloc+0x180>)
 80046c0:	6013      	str	r3, [r2, #0]
 80046c2:	6a7b      	ldr	r3, [r7, #36]	; 0x24
 80046c4:	685a      	ldr	r2, [r3, #4]
 80046c6:	4b10      	ldr	r3, [pc, #64]	; (8004708 <pvPortMalloc+0x174>)
 80046c8:	681b      	ldr	r3, [r3, #0]
 80046ca:	431a      	orrs	r2, r3
 80046cc:	6a7b      	ldr	r3, [r7, #36]	; 0x24
 80046ce:	605a      	str	r2, [r3, #4]
 80046d0:	6a7b      	ldr	r3, [r7, #36]	; 0x24
 80046d2:	2200      	movs	r2, #0
 80046d4:	601a      	str	r2, [r3, #0]
 80046d6:	f7fe fda9 	bl	800322c <xTaskResumeAll>
 80046da:	69fb      	ldr	r3, [r7, #28]
 80046dc:	f003 0307 	and.w	r3, r3, #7
 80046e0:	2b00      	cmp	r3, #0
 80046e2:	d009      	beq.n	80046f8 <pvPortMalloc+0x164>
 80046e4:	f04f 0350 	mov.w	r3, #80	; 0x50
 80046e8:	f383 8811 	msr	BASEPRI, r3
 80046ec:	f3bf 8f6f 	isb	sy
 80046f0:	f3bf 8f4f 	dsb	sy
 80046f4:	60fb      	str	r3, [r7, #12]
 80046f6:	e7fe      	b.n	80046f6 <pvPortMalloc+0x162>
 80046f8:	69fb      	ldr	r3, [r7, #28]
 80046fa:	4618      	mov	r0, r3
 80046fc:	3728      	adds	r7, #40	; 0x28
 80046fe:	46bd      	mov	sp, r7
 8004700:	bd80      	pop	{r7, pc}
 8004702:	bf00      	nop
 8004704:	20001ca0 	.word	0x20001ca0
 8004708:	20001cac 	.word	0x20001cac
 800470c:	20001ca4 	.word	0x20001ca4
 8004710:	20001c98 	.word	0x20001c98
 8004714:	20001ca8 	.word	0x20001ca8

08004718 <vPortFree>:
 8004718:	b580      	push	{r7, lr}
 800471a:	b086      	sub	sp, #24
 800471c:	af00      	add	r7, sp, #0
 800471e:	6078      	str	r0, [r7, #4]
 8004720:	687b      	ldr	r3, [r7, #4]
 8004722:	617b      	str	r3, [r7, #20]
 8004724:	687b      	ldr	r3, [r7, #4]
 8004726:	2b00      	cmp	r3, #0
 8004728:	d046      	beq.n	80047b8 <vPortFree+0xa0>
 800472a:	2308      	movs	r3, #8
 800472c:	425b      	negs	r3, r3
 800472e:	697a      	ldr	r2, [r7, #20]
 8004730:	4413      	add	r3, r2
 8004732:	617b      	str	r3, [r7, #20]
 8004734:	697b      	ldr	r3, [r7, #20]
 8004736:	613b      	str	r3, [r7, #16]
 8004738:	693b      	ldr	r3, [r7, #16]
 800473a:	685a      	ldr	r2, [r3, #4]
 800473c:	4b20      	ldr	r3, [pc, #128]	; (80047c0 <vPortFree+0xa8>)
 800473e:	681b      	ldr	r3, [r3, #0]
 8004740:	4013      	ands	r3, r2
 8004742:	2b00      	cmp	r3, #0
 8004744:	d109      	bne.n	800475a <vPortFree+0x42>
 8004746:	f04f 0350 	mov.w	r3, #80	; 0x50
 800474a:	f383 8811 	msr	BASEPRI, r3
 800474e:	f3bf 8f6f 	isb	sy
 8004752:	f3bf 8f4f 	dsb	sy
 8004756:	60fb      	str	r3, [r7, #12]
 8004758:	e7fe      	b.n	8004758 <vPortFree+0x40>
 800475a:	693b      	ldr	r3, [r7, #16]
 800475c:	681b      	ldr	r3, [r3, #0]
 800475e:	2b00      	cmp	r3, #0
 8004760:	d009      	beq.n	8004776 <vPortFree+0x5e>
 8004762:	f04f 0350 	mov.w	r3, #80	; 0x50
 8004766:	f383 8811 	msr	BASEPRI, r3
 800476a:	f3bf 8f6f 	isb	sy
 800476e:	f3bf 8f4f 	dsb	sy
 8004772:	60bb      	str	r3, [r7, #8]
 8004774:	e7fe      	b.n	8004774 <vPortFree+0x5c>
 8004776:	693b      	ldr	r3, [r7, #16]
 8004778:	685a      	ldr	r2, [r3, #4]
 800477a:	4b11      	ldr	r3, [pc, #68]	; (80047c0 <vPortFree+0xa8>)
 800477c:	681b      	ldr	r3, [r3, #0]
 800477e:	4013      	ands	r3, r2
 8004780:	2b00      	cmp	r3, #0
 8004782:	d019      	beq.n	80047b8 <vPortFree+0xa0>
 8004784:	693b      	ldr	r3, [r7, #16]
 8004786:	681b      	ldr	r3, [r3, #0]
 8004788:	2b00      	cmp	r3, #0
 800478a:	d115      	bne.n	80047b8 <vPortFree+0xa0>
 800478c:	693b      	ldr	r3, [r7, #16]
 800478e:	685a      	ldr	r2, [r3, #4]
 8004790:	4b0b      	ldr	r3, [pc, #44]	; (80047c0 <vPortFree+0xa8>)
 8004792:	681b      	ldr	r3, [r3, #0]
 8004794:	43db      	mvns	r3, r3
 8004796:	401a      	ands	r2, r3
 8004798:	693b      	ldr	r3, [r7, #16]
 800479a:	605a      	str	r2, [r3, #4]
 800479c:	f7fe fd38 	bl	8003210 <vTaskSuspendAll>
 80047a0:	693b      	ldr	r3, [r7, #16]
 80047a2:	685a      	ldr	r2, [r3, #4]
 80047a4:	4b07      	ldr	r3, [pc, #28]	; (80047c4 <vPortFree+0xac>)
 80047a6:	681b      	ldr	r3, [r3, #0]
 80047a8:	4413      	add	r3, r2
 80047aa:	4a06      	ldr	r2, [pc, #24]	; (80047c4 <vPortFree+0xac>)
 80047ac:	6013      	str	r3, [r2, #0]
 80047ae:	6938      	ldr	r0, [r7, #16]
 80047b0:	f000 f86c 	bl	800488c <prvInsertBlockIntoFreeList>
 80047b4:	f7fe fd3a 	bl	800322c <xTaskResumeAll>
 80047b8:	bf00      	nop
 80047ba:	3718      	adds	r7, #24
 80047bc:	46bd      	mov	sp, r7
 80047be:	bd80      	pop	{r7, pc}
 80047c0:	20001cac 	.word	0x20001cac
 80047c4:	20001ca4 	.word	0x20001ca4

080047c8 <prvHeapInit>:
 80047c8:	b480      	push	{r7}
 80047ca:	b085      	sub	sp, #20
 80047cc:	af00      	add	r7, sp, #0
 80047ce:	f44f 5380 	mov.w	r3, #4096	; 0x1000
 80047d2:	60bb      	str	r3, [r7, #8]
 80047d4:	4b27      	ldr	r3, [pc, #156]	; (8004874 <prvHeapInit+0xac>)
 80047d6:	60fb      	str	r3, [r7, #12]
 80047d8:	68fb      	ldr	r3, [r7, #12]
 80047da:	f003 0307 	and.w	r3, r3, #7
 80047de:	2b00      	cmp	r3, #0
 80047e0:	d00c      	beq.n	80047fc <prvHeapInit+0x34>
 80047e2:	68fb      	ldr	r3, [r7, #12]
 80047e4:	3307      	adds	r3, #7
 80047e6:	60fb      	str	r3, [r7, #12]
 80047e8:	68fb      	ldr	r3, [r7, #12]
 80047ea:	f023 0307 	bic.w	r3, r3, #7
 80047ee:	60fb      	str	r3, [r7, #12]
 80047f0:	68ba      	ldr	r2, [r7, #8]
 80047f2:	68fb      	ldr	r3, [r7, #12]
 80047f4:	1ad3      	subs	r3, r2, r3
 80047f6:	4a1f      	ldr	r2, [pc, #124]	; (8004874 <prvHeapInit+0xac>)
 80047f8:	4413      	add	r3, r2
 80047fa:	60bb      	str	r3, [r7, #8]
 80047fc:	68fb      	ldr	r3, [r7, #12]
 80047fe:	607b      	str	r3, [r7, #4]
 8004800:	4a1d      	ldr	r2, [pc, #116]	; (8004878 <prvHeapInit+0xb0>)
 8004802:	687b      	ldr	r3, [r7, #4]
 8004804:	6013      	str	r3, [r2, #0]
 8004806:	4b1c      	ldr	r3, [pc, #112]	; (8004878 <prvHeapInit+0xb0>)
 8004808:	2200      	movs	r2, #0
 800480a:	605a      	str	r2, [r3, #4]
 800480c:	687b      	ldr	r3, [r7, #4]
 800480e:	68ba      	ldr	r2, [r7, #8]
 8004810:	4413      	add	r3, r2
 8004812:	60fb      	str	r3, [r7, #12]
 8004814:	2208      	movs	r2, #8
 8004816:	68fb      	ldr	r3, [r7, #12]
 8004818:	1a9b      	subs	r3, r3, r2
 800481a:	60fb      	str	r3, [r7, #12]
 800481c:	68fb      	ldr	r3, [r7, #12]
 800481e:	f023 0307 	bic.w	r3, r3, #7
 8004822:	60fb      	str	r3, [r7, #12]
 8004824:	68fb      	ldr	r3, [r7, #12]
 8004826:	4a15      	ldr	r2, [pc, #84]	; (800487c <prvHeapInit+0xb4>)
 8004828:	6013      	str	r3, [r2, #0]
 800482a:	4b14      	ldr	r3, [pc, #80]	; (800487c <prvHeapInit+0xb4>)
 800482c:	681b      	ldr	r3, [r3, #0]
 800482e:	2200      	movs	r2, #0
 8004830:	605a      	str	r2, [r3, #4]
 8004832:	4b12      	ldr	r3, [pc, #72]	; (800487c <prvHeapInit+0xb4>)
 8004834:	681b      	ldr	r3, [r3, #0]
 8004836:	2200      	movs	r2, #0
 8004838:	601a      	str	r2, [r3, #0]
 800483a:	687b      	ldr	r3, [r7, #4]
 800483c:	603b      	str	r3, [r7, #0]
 800483e:	683b      	ldr	r3, [r7, #0]
 8004840:	68fa      	ldr	r2, [r7, #12]
 8004842:	1ad2      	subs	r2, r2, r3
 8004844:	683b      	ldr	r3, [r7, #0]
 8004846:	605a      	str	r2, [r3, #4]
 8004848:	4b0c      	ldr	r3, [pc, #48]	; (800487c <prvHeapInit+0xb4>)
 800484a:	681a      	ldr	r2, [r3, #0]
 800484c:	683b      	ldr	r3, [r7, #0]
 800484e:	601a      	str	r2, [r3, #0]
 8004850:	683b      	ldr	r3, [r7, #0]
 8004852:	685b      	ldr	r3, [r3, #4]
 8004854:	4a0a      	ldr	r2, [pc, #40]	; (8004880 <prvHeapInit+0xb8>)
 8004856:	6013      	str	r3, [r2, #0]
 8004858:	683b      	ldr	r3, [r7, #0]
 800485a:	685b      	ldr	r3, [r3, #4]
 800485c:	4a09      	ldr	r2, [pc, #36]	; (8004884 <prvHeapInit+0xbc>)
 800485e:	6013      	str	r3, [r2, #0]
 8004860:	4b09      	ldr	r3, [pc, #36]	; (8004888 <prvHeapInit+0xc0>)
 8004862:	f04f 4200 	mov.w	r2, #2147483648	; 0x80000000
 8004866:	601a      	str	r2, [r3, #0]
 8004868:	bf00      	nop
 800486a:	3714      	adds	r7, #20
 800486c:	46bd      	mov	sp, r7
 800486e:	bc80      	pop	{r7}
 8004870:	4770      	bx	lr
 8004872:	bf00      	nop
 8004874:	20000c98 	.word	0x20000c98
 8004878:	20001c98 	.word	0x20001c98
 800487c:	20001ca0 	.word	0x20001ca0
 8004880:	20001ca8 	.word	0x20001ca8
 8004884:	20001ca4 	.word	0x20001ca4
 8004888:	20001cac 	.word	0x20001cac

0800488c <prvInsertBlockIntoFreeList>:
 800488c:	b480      	push	{r7}
 800488e:	b085      	sub	sp, #20
 8004890:	af00      	add	r7, sp, #0
 8004892:	6078      	str	r0, [r7, #4]
 8004894:	4b27      	ldr	r3, [pc, #156]	; (8004934 <prvInsertBlockIntoFreeList+0xa8>)
 8004896:	60fb      	str	r3, [r7, #12]
 8004898:	e002      	b.n	80048a0 <prvInsertBlockIntoFreeList+0x14>
 800489a:	68fb      	ldr	r3, [r7, #12]
 800489c:	681b      	ldr	r3, [r3, #0]
 800489e:	60fb      	str	r3, [r7, #12]
 80048a0:	68fb      	ldr	r3, [r7, #12]
 80048a2:	681b      	ldr	r3, [r3, #0]
 80048a4:	687a      	ldr	r2, [r7, #4]
 80048a6:	429a      	cmp	r2, r3
 80048a8:	d8f7      	bhi.n	800489a <prvInsertBlockIntoFreeList+0xe>
 80048aa:	68fb      	ldr	r3, [r7, #12]
 80048ac:	60bb      	str	r3, [r7, #8]
 80048ae:	68fb      	ldr	r3, [r7, #12]
 80048b0:	685b      	ldr	r3, [r3, #4]
 80048b2:	68ba      	ldr	r2, [r7, #8]
 80048b4:	4413      	add	r3, r2
 80048b6:	687a      	ldr	r2, [r7, #4]
 80048b8:	429a      	cmp	r2, r3
 80048ba:	d108      	bne.n	80048ce <prvInsertBlockIntoFreeList+0x42>
 80048bc:	68fb      	ldr	r3, [r7, #12]
 80048be:	685a      	ldr	r2, [r3, #4]
 80048c0:	687b      	ldr	r3, [r7, #4]
 80048c2:	685b      	ldr	r3, [r3, #4]
 80048c4:	441a      	add	r2, r3
 80048c6:	68fb      	ldr	r3, [r7, #12]
 80048c8:	605a      	str	r2, [r3, #4]
 80048ca:	68fb      	ldr	r3, [r7, #12]
 80048cc:	607b      	str	r3, [r7, #4]
 80048ce:	687b      	ldr	r3, [r7, #4]
 80048d0:	60bb      	str	r3, [r7, #8]
 80048d2:	687b      	ldr	r3, [r7, #4]
 80048d4:	685b      	ldr	r3, [r3, #4]
 80048d6:	68ba      	ldr	r2, [r7, #8]
 80048d8:	441a      	add	r2, r3
 80048da:	68fb      	ldr	r3, [r7, #12]
 80048dc:	681b      	ldr	r3, [r3, #0]
 80048de:	429a      	cmp	r2, r3
 80048e0:	d118      	bne.n	8004914 <prvInsertBlockIntoFreeList+0x88>
 80048e2:	68fb      	ldr	r3, [r7, #12]
 80048e4:	681a      	ldr	r2, [r3, #0]
 80048e6:	4b14      	ldr	r3, [pc, #80]	; (8004938 <prvInsertBlockIntoFreeList+0xac>)
 80048e8:	681b      	ldr	r3, [r3, #0]
 80048ea:	429a      	cmp	r2, r3
 80048ec:	d00d      	beq.n	800490a <prvInsertBlockIntoFreeList+0x7e>
 80048ee:	687b      	ldr	r3, [r7, #4]
 80048f0:	685a      	ldr	r2, [r3, #4]
 80048f2:	68fb      	ldr	r3, [r7, #12]
 80048f4:	681b      	ldr	r3, [r3, #0]
 80048f6:	685b      	ldr	r3, [r3, #4]
 80048f8:	441a      	add	r2, r3
 80048fa:	687b      	ldr	r3, [r7, #4]
 80048fc:	605a      	str	r2, [r3, #4]
 80048fe:	68fb      	ldr	r3, [r7, #12]
 8004900:	681b      	ldr	r3, [r3, #0]
 8004902:	681a      	ldr	r2, [r3, #0]
 8004904:	687b      	ldr	r3, [r7, #4]
 8004906:	601a      	str	r2, [r3, #0]
 8004908:	e008      	b.n	800491c <prvInsertBlockIntoFreeList+0x90>
 800490a:	4b0b      	ldr	r3, [pc, #44]	; (8004938 <prvInsertBlockIntoFreeList+0xac>)
 800490c:	681a      	ldr	r2, [r3, #0]
 800490e:	687b      	ldr	r3, [r7, #4]
 8004910:	601a      	str	r2, [r3, #0]
 8004912:	e003      	b.n	800491c <prvInsertBlockIntoFreeList+0x90>
 8004914:	68fb      	ldr	r3, [r7, #12]
 8004916:	681a      	ldr	r2, [r3, #0]
 8004918:	687b      	ldr	r3, [r7, #4]
 800491a:	601a      	str	r2, [r3, #0]
 800491c:	68fa      	ldr	r2, [r7, #12]
 800491e:	687b      	ldr	r3, [r7, #4]
 8004920:	429a      	cmp	r2, r3
 8004922:	d002      	beq.n	800492a <prvInsertBlockIntoFreeList+0x9e>
 8004924:	68fb      	ldr	r3, [r7, #12]
 8004926:	687a      	ldr	r2, [r7, #4]
 8004928:	601a      	str	r2, [r3, #0]
 800492a:	bf00      	nop
 800492c:	3714      	adds	r7, #20
 800492e:	46bd      	mov	sp, r7
 8004930:	bc80      	pop	{r7}
 8004932:	4770      	bx	lr
 8004934:	20001c98 	.word	0x20001c98
 8004938:	20001ca0 	.word	0x20001ca0

0800493c <__errno>:
 800493c:	4b01      	ldr	r3, [pc, #4]	; (8004944 <__errno+0x8>)
 800493e:	6818      	ldr	r0, [r3, #0]
 8004940:	4770      	bx	lr
 8004942:	bf00      	nop
 8004944:	20000018 	.word	0x20000018

08004948 <__libc_init_array>:
 8004948:	b570      	push	{r4, r5, r6, lr}
 800494a:	2500      	movs	r5, #0
 800494c:	4e0c      	ldr	r6, [pc, #48]	; (8004980 <__libc_init_array+0x38>)
 800494e:	4c0d      	ldr	r4, [pc, #52]	; (8004984 <__libc_init_array+0x3c>)
 8004950:	1ba4      	subs	r4, r4, r6
 8004952:	10a4      	asrs	r4, r4, #2
 8004954:	42a5      	cmp	r5, r4
 8004956:	d109      	bne.n	800496c <__libc_init_array+0x24>
 8004958:	f000 fc36 	bl	80051c8 <_init>
 800495c:	2500      	movs	r5, #0
 800495e:	4e0a      	ldr	r6, [pc, #40]	; (8004988 <__libc_init_array+0x40>)
 8004960:	4c0a      	ldr	r4, [pc, #40]	; (800498c <__libc_init_array+0x44>)
 8004962:	1ba4      	subs	r4, r4, r6
 8004964:	10a4      	asrs	r4, r4, #2
 8004966:	42a5      	cmp	r5, r4
 8004968:	d105      	bne.n	8004976 <__libc_init_array+0x2e>
 800496a:	bd70      	pop	{r4, r5, r6, pc}
 800496c:	f856 3025 	ldr.w	r3, [r6, r5, lsl #2]
 8004970:	4798      	blx	r3
 8004972:	3501      	adds	r5, #1
 8004974:	e7ee      	b.n	8004954 <__libc_init_array+0xc>
 8004976:	f856 3025 	ldr.w	r3, [r6, r5, lsl #2]
 800497a:	4798      	blx	r3
 800497c:	3501      	adds	r5, #1
 800497e:	e7f2      	b.n	8004966 <__libc_init_array+0x1e>
 8004980:	08005474 	.word	0x08005474
 8004984:	08005474 	.word	0x08005474
 8004988:	08005474 	.word	0x08005474
 800498c:	08005478 	.word	0x08005478

08004990 <memcpy>:
 8004990:	b510      	push	{r4, lr}
 8004992:	1e43      	subs	r3, r0, #1
 8004994:	440a      	add	r2, r1
 8004996:	4291      	cmp	r1, r2
 8004998:	d100      	bne.n	800499c <memcpy+0xc>
 800499a:	bd10      	pop	{r4, pc}
 800499c:	f811 4b01 	ldrb.w	r4, [r1], #1
 80049a0:	f803 4f01 	strb.w	r4, [r3, #1]!
 80049a4:	e7f7      	b.n	8004996 <memcpy+0x6>

080049a6 <memset>:
 80049a6:	4603      	mov	r3, r0
 80049a8:	4402      	add	r2, r0
 80049aa:	4293      	cmp	r3, r2
 80049ac:	d100      	bne.n	80049b0 <memset+0xa>
 80049ae:	4770      	bx	lr
 80049b0:	f803 1b01 	strb.w	r1, [r3], #1
 80049b4:	e7f9      	b.n	80049aa <memset+0x4>
	...

080049b8 <siprintf>:
 80049b8:	b40e      	push	{r1, r2, r3}
 80049ba:	f06f 4100 	mvn.w	r1, #2147483648	; 0x80000000
 80049be:	b500      	push	{lr}
 80049c0:	b09c      	sub	sp, #112	; 0x70
 80049c2:	ab1d      	add	r3, sp, #116	; 0x74
 80049c4:	9002      	str	r0, [sp, #8]
 80049c6:	9006      	str	r0, [sp, #24]
 80049c8:	9107      	str	r1, [sp, #28]
 80049ca:	9104      	str	r1, [sp, #16]
 80049cc:	4808      	ldr	r0, [pc, #32]	; (80049f0 <siprintf+0x38>)
 80049ce:	4909      	ldr	r1, [pc, #36]	; (80049f4 <siprintf+0x3c>)
 80049d0:	f853 2b04 	ldr.w	r2, [r3], #4
 80049d4:	9105      	str	r1, [sp, #20]
 80049d6:	6800      	ldr	r0, [r0, #0]
 80049d8:	a902      	add	r1, sp, #8
 80049da:	9301      	str	r3, [sp, #4]
 80049dc:	f000 f866 	bl	8004aac <_svfiprintf_r>
 80049e0:	2200      	movs	r2, #0
 80049e2:	9b02      	ldr	r3, [sp, #8]
 80049e4:	701a      	strb	r2, [r3, #0]
 80049e6:	b01c      	add	sp, #112	; 0x70
 80049e8:	f85d eb04 	ldr.w	lr, [sp], #4
 80049ec:	b003      	add	sp, #12
 80049ee:	4770      	bx	lr
 80049f0:	20000018 	.word	0x20000018
 80049f4:	ffff0208 	.word	0xffff0208

080049f8 <__ssputs_r>:
 80049f8:	e92d 47f0 	stmdb	sp!, {r4, r5, r6, r7, r8, r9, sl, lr}
 80049fc:	688e      	ldr	r6, [r1, #8]
 80049fe:	4682      	mov	sl, r0
 8004a00:	429e      	cmp	r6, r3
 8004a02:	460c      	mov	r4, r1
 8004a04:	4690      	mov	r8, r2
 8004a06:	4699      	mov	r9, r3
 8004a08:	d837      	bhi.n	8004a7a <__ssputs_r+0x82>
 8004a0a:	898a      	ldrh	r2, [r1, #12]
 8004a0c:	f412 6f90 	tst.w	r2, #1152	; 0x480
 8004a10:	d031      	beq.n	8004a76 <__ssputs_r+0x7e>
 8004a12:	2302      	movs	r3, #2
 8004a14:	6825      	ldr	r5, [r4, #0]
 8004a16:	6909      	ldr	r1, [r1, #16]
 8004a18:	1a6f      	subs	r7, r5, r1
 8004a1a:	6965      	ldr	r5, [r4, #20]
 8004a1c:	eb05 0545 	add.w	r5, r5, r5, lsl #1
 8004a20:	fb95 f5f3 	sdiv	r5, r5, r3
 8004a24:	f109 0301 	add.w	r3, r9, #1
 8004a28:	443b      	add	r3, r7
 8004a2a:	429d      	cmp	r5, r3
 8004a2c:	bf38      	it	cc
 8004a2e:	461d      	movcc	r5, r3
 8004a30:	0553      	lsls	r3, r2, #21
 8004a32:	d530      	bpl.n	8004a96 <__ssputs_r+0x9e>
 8004a34:	4629      	mov	r1, r5
 8004a36:	f000 fb2d 	bl	8005094 <_malloc_r>
 8004a3a:	4606      	mov	r6, r0
 8004a3c:	b950      	cbnz	r0, 8004a54 <__ssputs_r+0x5c>
 8004a3e:	230c      	movs	r3, #12
 8004a40:	f04f 30ff 	mov.w	r0, #4294967295
 8004a44:	f8ca 3000 	str.w	r3, [sl]
 8004a48:	89a3      	ldrh	r3, [r4, #12]
 8004a4a:	f043 0340 	orr.w	r3, r3, #64	; 0x40
 8004a4e:	81a3      	strh	r3, [r4, #12]
 8004a50:	e8bd 87f0 	ldmia.w	sp!, {r4, r5, r6, r7, r8, r9, sl, pc}
 8004a54:	463a      	mov	r2, r7
 8004a56:	6921      	ldr	r1, [r4, #16]
 8004a58:	f7ff ff9a 	bl	8004990 <memcpy>
 8004a5c:	89a3      	ldrh	r3, [r4, #12]
 8004a5e:	f423 6390 	bic.w	r3, r3, #1152	; 0x480
 8004a62:	f043 0380 	orr.w	r3, r3, #128	; 0x80
 8004a66:	81a3      	strh	r3, [r4, #12]
 8004a68:	6126      	str	r6, [r4, #16]
 8004a6a:	443e      	add	r6, r7
 8004a6c:	6026      	str	r6, [r4, #0]
 8004a6e:	464e      	mov	r6, r9
 8004a70:	6165      	str	r5, [r4, #20]
 8004a72:	1bed      	subs	r5, r5, r7
 8004a74:	60a5      	str	r5, [r4, #8]
 8004a76:	454e      	cmp	r6, r9
 8004a78:	d900      	bls.n	8004a7c <__ssputs_r+0x84>
 8004a7a:	464e      	mov	r6, r9
 8004a7c:	4632      	mov	r2, r6
 8004a7e:	4641      	mov	r1, r8
 8004a80:	6820      	ldr	r0, [r4, #0]
 8004a82:	f000 faa1 	bl	8004fc8 <memmove>
 8004a86:	68a3      	ldr	r3, [r4, #8]
 8004a88:	2000      	movs	r0, #0
 8004a8a:	1b9b      	subs	r3, r3, r6
 8004a8c:	60a3      	str	r3, [r4, #8]
 8004a8e:	6823      	ldr	r3, [r4, #0]
 8004a90:	441e      	add	r6, r3
 8004a92:	6026      	str	r6, [r4, #0]
 8004a94:	e7dc      	b.n	8004a50 <__ssputs_r+0x58>
 8004a96:	462a      	mov	r2, r5
 8004a98:	f000 fb56 	bl	8005148 <_realloc_r>
 8004a9c:	4606      	mov	r6, r0
 8004a9e:	2800      	cmp	r0, #0
 8004aa0:	d1e2      	bne.n	8004a68 <__ssputs_r+0x70>
 8004aa2:	6921      	ldr	r1, [r4, #16]
 8004aa4:	4650      	mov	r0, sl
 8004aa6:	f000 faa9 	bl	8004ffc <_free_r>
 8004aaa:	e7c8      	b.n	8004a3e <__ssputs_r+0x46>

08004aac <_svfiprintf_r>:
 8004aac:	e92d 4ff0 	stmdb	sp!, {r4, r5, r6, r7, r8, r9, sl, fp, lr}
 8004ab0:	461d      	mov	r5, r3
 8004ab2:	898b      	ldrh	r3, [r1, #12]
 8004ab4:	b09d      	sub	sp, #116	; 0x74
 8004ab6:	061f      	lsls	r7, r3, #24
 8004ab8:	4680      	mov	r8, r0
 8004aba:	460c      	mov	r4, r1
 8004abc:	4616      	mov	r6, r2
 8004abe:	d50f      	bpl.n	8004ae0 <_svfiprintf_r+0x34>
 8004ac0:	690b      	ldr	r3, [r1, #16]
 8004ac2:	b96b      	cbnz	r3, 8004ae0 <_svfiprintf_r+0x34>
 8004ac4:	2140      	movs	r1, #64	; 0x40
 8004ac6:	f000 fae5 	bl	8005094 <_malloc_r>
 8004aca:	6020      	str	r0, [r4, #0]
 8004acc:	6120      	str	r0, [r4, #16]
 8004ace:	b928      	cbnz	r0, 8004adc <_svfiprintf_r+0x30>
 8004ad0:	230c      	movs	r3, #12
 8004ad2:	f8c8 3000 	str.w	r3, [r8]
 8004ad6:	f04f 30ff 	mov.w	r0, #4294967295
 8004ada:	e0c8      	b.n	8004c6e <_svfiprintf_r+0x1c2>
 8004adc:	2340      	movs	r3, #64	; 0x40
 8004ade:	6163      	str	r3, [r4, #20]
 8004ae0:	2300      	movs	r3, #0
 8004ae2:	9309      	str	r3, [sp, #36]	; 0x24
 8004ae4:	2320      	movs	r3, #32
 8004ae6:	f88d 3029 	strb.w	r3, [sp, #41]	; 0x29
 8004aea:	2330      	movs	r3, #48	; 0x30
 8004aec:	f04f 0b01 	mov.w	fp, #1
 8004af0:	f88d 302a 	strb.w	r3, [sp, #42]	; 0x2a
 8004af4:	9503      	str	r5, [sp, #12]
 8004af6:	4637      	mov	r7, r6
 8004af8:	463d      	mov	r5, r7
 8004afa:	f815 3b01 	ldrb.w	r3, [r5], #1
 8004afe:	b10b      	cbz	r3, 8004b04 <_svfiprintf_r+0x58>
 8004b00:	2b25      	cmp	r3, #37	; 0x25
 8004b02:	d13e      	bne.n	8004b82 <_svfiprintf_r+0xd6>
 8004b04:	ebb7 0a06 	subs.w	sl, r7, r6
 8004b08:	d00b      	beq.n	8004b22 <_svfiprintf_r+0x76>
 8004b0a:	4653      	mov	r3, sl
 8004b0c:	4632      	mov	r2, r6
 8004b0e:	4621      	mov	r1, r4
 8004b10:	4640      	mov	r0, r8
 8004b12:	f7ff ff71 	bl	80049f8 <__ssputs_r>
 8004b16:	3001      	adds	r0, #1
 8004b18:	f000 80a4 	beq.w	8004c64 <_svfiprintf_r+0x1b8>
 8004b1c:	9b09      	ldr	r3, [sp, #36]	; 0x24
 8004b1e:	4453      	add	r3, sl
 8004b20:	9309      	str	r3, [sp, #36]	; 0x24
 8004b22:	783b      	ldrb	r3, [r7, #0]
 8004b24:	2b00      	cmp	r3, #0
 8004b26:	f000 809d 	beq.w	8004c64 <_svfiprintf_r+0x1b8>
 8004b2a:	2300      	movs	r3, #0
 8004b2c:	f04f 32ff 	mov.w	r2, #4294967295
 8004b30:	e9cd 2305 	strd	r2, r3, [sp, #20]
 8004b34:	9304      	str	r3, [sp, #16]
 8004b36:	9307      	str	r3, [sp, #28]
 8004b38:	f88d 3053 	strb.w	r3, [sp, #83]	; 0x53
 8004b3c:	931a      	str	r3, [sp, #104]	; 0x68
 8004b3e:	462f      	mov	r7, r5
 8004b40:	2205      	movs	r2, #5
 8004b42:	f817 1b01 	ldrb.w	r1, [r7], #1
 8004b46:	4850      	ldr	r0, [pc, #320]	; (8004c88 <_svfiprintf_r+0x1dc>)
 8004b48:	f000 fa30 	bl	8004fac <memchr>
 8004b4c:	9b04      	ldr	r3, [sp, #16]
 8004b4e:	b9d0      	cbnz	r0, 8004b86 <_svfiprintf_r+0xda>
 8004b50:	06d9      	lsls	r1, r3, #27
 8004b52:	bf44      	itt	mi
 8004b54:	2220      	movmi	r2, #32
 8004b56:	f88d 2053 	strbmi.w	r2, [sp, #83]	; 0x53
 8004b5a:	071a      	lsls	r2, r3, #28
 8004b5c:	bf44      	itt	mi
 8004b5e:	222b      	movmi	r2, #43	; 0x2b
 8004b60:	f88d 2053 	strbmi.w	r2, [sp, #83]	; 0x53
 8004b64:	782a      	ldrb	r2, [r5, #0]
 8004b66:	2a2a      	cmp	r2, #42	; 0x2a
 8004b68:	d015      	beq.n	8004b96 <_svfiprintf_r+0xea>
 8004b6a:	462f      	mov	r7, r5
 8004b6c:	2000      	movs	r0, #0
 8004b6e:	250a      	movs	r5, #10
 8004b70:	9a07      	ldr	r2, [sp, #28]
 8004b72:	4639      	mov	r1, r7
 8004b74:	f811 3b01 	ldrb.w	r3, [r1], #1
 8004b78:	3b30      	subs	r3, #48	; 0x30
 8004b7a:	2b09      	cmp	r3, #9
 8004b7c:	d94d      	bls.n	8004c1a <_svfiprintf_r+0x16e>
 8004b7e:	b1b8      	cbz	r0, 8004bb0 <_svfiprintf_r+0x104>
 8004b80:	e00f      	b.n	8004ba2 <_svfiprintf_r+0xf6>
 8004b82:	462f      	mov	r7, r5
 8004b84:	e7b8      	b.n	8004af8 <_svfiprintf_r+0x4c>
 8004b86:	4a40      	ldr	r2, [pc, #256]	; (8004c88 <_svfiprintf_r+0x1dc>)
 8004b88:	463d      	mov	r5, r7
 8004b8a:	1a80      	subs	r0, r0, r2
 8004b8c:	fa0b f000 	lsl.w	r0, fp, r0
 8004b90:	4318      	orrs	r0, r3
 8004b92:	9004      	str	r0, [sp, #16]
 8004b94:	e7d3      	b.n	8004b3e <_svfiprintf_r+0x92>
 8004b96:	9a03      	ldr	r2, [sp, #12]
 8004b98:	1d11      	adds	r1, r2, #4
 8004b9a:	6812      	ldr	r2, [r2, #0]
 8004b9c:	9103      	str	r1, [sp, #12]
 8004b9e:	2a00      	cmp	r2, #0
 8004ba0:	db01      	blt.n	8004ba6 <_svfiprintf_r+0xfa>
 8004ba2:	9207      	str	r2, [sp, #28]
 8004ba4:	e004      	b.n	8004bb0 <_svfiprintf_r+0x104>
 8004ba6:	4252      	negs	r2, r2
 8004ba8:	f043 0302 	orr.w	r3, r3, #2
 8004bac:	9207      	str	r2, [sp, #28]
 8004bae:	9304      	str	r3, [sp, #16]
 8004bb0:	783b      	ldrb	r3, [r7, #0]
 8004bb2:	2b2e      	cmp	r3, #46	; 0x2e
 8004bb4:	d10c      	bne.n	8004bd0 <_svfiprintf_r+0x124>
 8004bb6:	787b      	ldrb	r3, [r7, #1]
 8004bb8:	2b2a      	cmp	r3, #42	; 0x2a
 8004bba:	d133      	bne.n	8004c24 <_svfiprintf_r+0x178>
 8004bbc:	9b03      	ldr	r3, [sp, #12]
 8004bbe:	3702      	adds	r7, #2
 8004bc0:	1d1a      	adds	r2, r3, #4
 8004bc2:	681b      	ldr	r3, [r3, #0]
 8004bc4:	9203      	str	r2, [sp, #12]
 8004bc6:	2b00      	cmp	r3, #0
 8004bc8:	bfb8      	it	lt
 8004bca:	f04f 33ff 	movlt.w	r3, #4294967295
 8004bce:	9305      	str	r3, [sp, #20]
 8004bd0:	4d2e      	ldr	r5, [pc, #184]	; (8004c8c <_svfiprintf_r+0x1e0>)
 8004bd2:	2203      	movs	r2, #3
 8004bd4:	7839      	ldrb	r1, [r7, #0]
 8004bd6:	4628      	mov	r0, r5
 8004bd8:	f000 f9e8 	bl	8004fac <memchr>
 8004bdc:	b138      	cbz	r0, 8004bee <_svfiprintf_r+0x142>
 8004bde:	2340      	movs	r3, #64	; 0x40
 8004be0:	1b40      	subs	r0, r0, r5
 8004be2:	fa03 f000 	lsl.w	r0, r3, r0
 8004be6:	9b04      	ldr	r3, [sp, #16]
 8004be8:	3701      	adds	r7, #1
 8004bea:	4303      	orrs	r3, r0
 8004bec:	9304      	str	r3, [sp, #16]
 8004bee:	7839      	ldrb	r1, [r7, #0]
 8004bf0:	2206      	movs	r2, #6
 8004bf2:	4827      	ldr	r0, [pc, #156]	; (8004c90 <_svfiprintf_r+0x1e4>)
 8004bf4:	1c7e      	adds	r6, r7, #1
 8004bf6:	f88d 1028 	strb.w	r1, [sp, #40]	; 0x28
 8004bfa:	f000 f9d7 	bl	8004fac <memchr>
 8004bfe:	2800      	cmp	r0, #0
 8004c00:	d038      	beq.n	8004c74 <_svfiprintf_r+0x1c8>
 8004c02:	4b24      	ldr	r3, [pc, #144]	; (8004c94 <_svfiprintf_r+0x1e8>)
 8004c04:	bb13      	cbnz	r3, 8004c4c <_svfiprintf_r+0x1a0>
 8004c06:	9b03      	ldr	r3, [sp, #12]
 8004c08:	3307      	adds	r3, #7
 8004c0a:	f023 0307 	bic.w	r3, r3, #7
 8004c0e:	3308      	adds	r3, #8
 8004c10:	9303      	str	r3, [sp, #12]
 8004c12:	9b09      	ldr	r3, [sp, #36]	; 0x24
 8004c14:	444b      	add	r3, r9
 8004c16:	9309      	str	r3, [sp, #36]	; 0x24
 8004c18:	e76d      	b.n	8004af6 <_svfiprintf_r+0x4a>
 8004c1a:	fb05 3202 	mla	r2, r5, r2, r3
 8004c1e:	2001      	movs	r0, #1
 8004c20:	460f      	mov	r7, r1
 8004c22:	e7a6      	b.n	8004b72 <_svfiprintf_r+0xc6>
 8004c24:	2300      	movs	r3, #0
 8004c26:	250a      	movs	r5, #10
 8004c28:	4619      	mov	r1, r3
 8004c2a:	3701      	adds	r7, #1
 8004c2c:	9305      	str	r3, [sp, #20]
 8004c2e:	4638      	mov	r0, r7
 8004c30:	f810 2b01 	ldrb.w	r2, [r0], #1
 8004c34:	3a30      	subs	r2, #48	; 0x30
 8004c36:	2a09      	cmp	r2, #9
 8004c38:	d903      	bls.n	8004c42 <_svfiprintf_r+0x196>
 8004c3a:	2b00      	cmp	r3, #0
 8004c3c:	d0c8      	beq.n	8004bd0 <_svfiprintf_r+0x124>
 8004c3e:	9105      	str	r1, [sp, #20]
 8004c40:	e7c6      	b.n	8004bd0 <_svfiprintf_r+0x124>
 8004c42:	fb05 2101 	mla	r1, r5, r1, r2
 8004c46:	2301      	movs	r3, #1
 8004c48:	4607      	mov	r7, r0
 8004c4a:	e7f0      	b.n	8004c2e <_svfiprintf_r+0x182>
 8004c4c:	ab03      	add	r3, sp, #12
 8004c4e:	9300      	str	r3, [sp, #0]
 8004c50:	4622      	mov	r2, r4
 8004c52:	4b11      	ldr	r3, [pc, #68]	; (8004c98 <_svfiprintf_r+0x1ec>)
 8004c54:	a904      	add	r1, sp, #16
 8004c56:	4640      	mov	r0, r8
 8004c58:	f3af 8000 	nop.w
 8004c5c:	f1b0 3fff 	cmp.w	r0, #4294967295
 8004c60:	4681      	mov	r9, r0
 8004c62:	d1d6      	bne.n	8004c12 <_svfiprintf_r+0x166>
 8004c64:	89a3      	ldrh	r3, [r4, #12]
 8004c66:	065b      	lsls	r3, r3, #25
 8004c68:	f53f af35 	bmi.w	8004ad6 <_svfiprintf_r+0x2a>
 8004c6c:	9809      	ldr	r0, [sp, #36]	; 0x24
 8004c6e:	b01d      	add	sp, #116	; 0x74
 8004c70:	e8bd 8ff0 	ldmia.w	sp!, {r4, r5, r6, r7, r8, r9, sl, fp, pc}
 8004c74:	ab03      	add	r3, sp, #12
 8004c76:	9300      	str	r3, [sp, #0]
 8004c78:	4622      	mov	r2, r4
 8004c7a:	4b07      	ldr	r3, [pc, #28]	; (8004c98 <_svfiprintf_r+0x1ec>)
 8004c7c:	a904      	add	r1, sp, #16
 8004c7e:	4640      	mov	r0, r8
 8004c80:	f000 f882 	bl	8004d88 <_printf_i>
 8004c84:	e7ea      	b.n	8004c5c <_svfiprintf_r+0x1b0>
 8004c86:	bf00      	nop
 8004c88:	08005440 	.word	0x08005440
 8004c8c:	08005446 	.word	0x08005446
 8004c90:	0800544a 	.word	0x0800544a
 8004c94:	00000000 	.word	0x00000000
 8004c98:	080049f9 	.word	0x080049f9

08004c9c <_printf_common>:
 8004c9c:	e92d 47f0 	stmdb	sp!, {r4, r5, r6, r7, r8, r9, sl, lr}
 8004ca0:	4691      	mov	r9, r2
 8004ca2:	461f      	mov	r7, r3
 8004ca4:	688a      	ldr	r2, [r1, #8]
 8004ca6:	690b      	ldr	r3, [r1, #16]
 8004ca8:	4606      	mov	r6, r0
 8004caa:	4293      	cmp	r3, r2
 8004cac:	bfb8      	it	lt
 8004cae:	4613      	movlt	r3, r2
 8004cb0:	f8c9 3000 	str.w	r3, [r9]
 8004cb4:	f891 2043 	ldrb.w	r2, [r1, #67]	; 0x43
 8004cb8:	460c      	mov	r4, r1
 8004cba:	f8dd 8020 	ldr.w	r8, [sp, #32]
 8004cbe:	b112      	cbz	r2, 8004cc6 <_printf_common+0x2a>
 8004cc0:	3301      	adds	r3, #1
 8004cc2:	f8c9 3000 	str.w	r3, [r9]
 8004cc6:	6823      	ldr	r3, [r4, #0]
 8004cc8:	0699      	lsls	r1, r3, #26
 8004cca:	bf42      	ittt	mi
 8004ccc:	f8d9 3000 	ldrmi.w	r3, [r9]
 8004cd0:	3302      	addmi	r3, #2
 8004cd2:	f8c9 3000 	strmi.w	r3, [r9]
 8004cd6:	6825      	ldr	r5, [r4, #0]
 8004cd8:	f015 0506 	ands.w	r5, r5, #6
 8004cdc:	d107      	bne.n	8004cee <_printf_common+0x52>
 8004cde:	f104 0a19 	add.w	sl, r4, #25
 8004ce2:	68e3      	ldr	r3, [r4, #12]
 8004ce4:	f8d9 2000 	ldr.w	r2, [r9]
 8004ce8:	1a9b      	subs	r3, r3, r2
 8004cea:	42ab      	cmp	r3, r5
 8004cec:	dc29      	bgt.n	8004d42 <_printf_common+0xa6>
 8004cee:	f894 3043 	ldrb.w	r3, [r4, #67]	; 0x43
 8004cf2:	6822      	ldr	r2, [r4, #0]
 8004cf4:	3300      	adds	r3, #0
 8004cf6:	bf18      	it	ne
 8004cf8:	2301      	movne	r3, #1
 8004cfa:	0692      	lsls	r2, r2, #26
 8004cfc:	d42e      	bmi.n	8004d5c <_printf_common+0xc0>
 8004cfe:	f104 0243 	add.w	r2, r4, #67	; 0x43
 8004d02:	4639      	mov	r1, r7
 8004d04:	4630      	mov	r0, r6
 8004d06:	47c0      	blx	r8
 8004d08:	3001      	adds	r0, #1
 8004d0a:	d021      	beq.n	8004d50 <_printf_common+0xb4>
 8004d0c:	6823      	ldr	r3, [r4, #0]
 8004d0e:	68e5      	ldr	r5, [r4, #12]
 8004d10:	f003 0306 	and.w	r3, r3, #6
 8004d14:	2b04      	cmp	r3, #4
 8004d16:	bf18      	it	ne
 8004d18:	2500      	movne	r5, #0
 8004d1a:	f8d9 2000 	ldr.w	r2, [r9]
 8004d1e:	f04f 0900 	mov.w	r9, #0
 8004d22:	bf08      	it	eq
 8004d24:	1aad      	subeq	r5, r5, r2
 8004d26:	68a3      	ldr	r3, [r4, #8]
 8004d28:	6922      	ldr	r2, [r4, #16]
 8004d2a:	bf08      	it	eq
 8004d2c:	ea25 75e5 	biceq.w	r5, r5, r5, asr #31
 8004d30:	4293      	cmp	r3, r2
 8004d32:	bfc4      	itt	gt
 8004d34:	1a9b      	subgt	r3, r3, r2
 8004d36:	18ed      	addgt	r5, r5, r3
 8004d38:	341a      	adds	r4, #26
 8004d3a:	454d      	cmp	r5, r9
 8004d3c:	d11a      	bne.n	8004d74 <_printf_common+0xd8>
 8004d3e:	2000      	movs	r0, #0
 8004d40:	e008      	b.n	8004d54 <_printf_common+0xb8>
 8004d42:	2301      	movs	r3, #1
 8004d44:	4652      	mov	r2, sl
 8004d46:	4639      	mov	r1, r7
 8004d48:	4630      	mov	r0, r6
 8004d4a:	47c0      	blx	r8
 8004d4c:	3001      	adds	r0, #1
 8004d4e:	d103      	bne.n	8004d58 <_printf_common+0xbc>
 8004d50:	f04f 30ff 	mov.w	r0, #4294967295
 8004d54:	e8bd 87f0 	ldmia.w	sp!, {r4, r5, r6, r7, r8, r9, sl, pc}
 8004d58:	3501      	adds	r5, #1
 8004d5a:	e7c2      	b.n	8004ce2 <_printf_common+0x46>
 8004d5c:	2030      	movs	r0, #48	; 0x30
 8004d5e:	18e1      	adds	r1, r4, r3
 8004d60:	f881 0043 	strb.w	r0, [r1, #67]	; 0x43
 8004d64:	1c5a      	adds	r2, r3, #1
 8004d66:	f894 1045 	ldrb.w	r1, [r4, #69]	; 0x45
 8004d6a:	4422      	add	r2, r4
 8004d6c:	3302      	adds	r3, #2
 8004d6e:	f882 1043 	strb.w	r1, [r2, #67]	; 0x43
 8004d72:	e7c4      	b.n	8004cfe <_printf_common+0x62>
 8004d74:	2301      	movs	r3, #1
 8004d76:	4622      	mov	r2, r4
 8004d78:	4639      	mov	r1, r7
 8004d7a:	4630      	mov	r0, r6
 8004d7c:	47c0      	blx	r8
 8004d7e:	3001      	adds	r0, #1
 8004d80:	d0e6      	beq.n	8004d50 <_printf_common+0xb4>
 8004d82:	f109 0901 	add.w	r9, r9, #1
 8004d86:	e7d8      	b.n	8004d3a <_printf_common+0x9e>

08004d88 <_printf_i>:
 8004d88:	e92d 43f0 	stmdb	sp!, {r4, r5, r6, r7, r8, r9, lr}
 8004d8c:	f101 0c43 	add.w	ip, r1, #67	; 0x43
 8004d90:	460c      	mov	r4, r1
 8004d92:	7e09      	ldrb	r1, [r1, #24]
 8004d94:	b085      	sub	sp, #20
 8004d96:	296e      	cmp	r1, #110	; 0x6e
 8004d98:	4617      	mov	r7, r2
 8004d9a:	4606      	mov	r6, r0
 8004d9c:	4698      	mov	r8, r3
 8004d9e:	9a0c      	ldr	r2, [sp, #48]	; 0x30
 8004da0:	f000 80b3 	beq.w	8004f0a <_printf_i+0x182>
 8004da4:	d822      	bhi.n	8004dec <_printf_i+0x64>
 8004da6:	2963      	cmp	r1, #99	; 0x63
 8004da8:	d036      	beq.n	8004e18 <_printf_i+0x90>
 8004daa:	d80a      	bhi.n	8004dc2 <_printf_i+0x3a>
 8004dac:	2900      	cmp	r1, #0
 8004dae:	f000 80b9 	beq.w	8004f24 <_printf_i+0x19c>
 8004db2:	2958      	cmp	r1, #88	; 0x58
 8004db4:	f000 8083 	beq.w	8004ebe <_printf_i+0x136>
 8004db8:	f104 0542 	add.w	r5, r4, #66	; 0x42
 8004dbc:	f884 1042 	strb.w	r1, [r4, #66]	; 0x42
 8004dc0:	e032      	b.n	8004e28 <_printf_i+0xa0>
 8004dc2:	2964      	cmp	r1, #100	; 0x64
 8004dc4:	d001      	beq.n	8004dca <_printf_i+0x42>
 8004dc6:	2969      	cmp	r1, #105	; 0x69
 8004dc8:	d1f6      	bne.n	8004db8 <_printf_i+0x30>
 8004dca:	6820      	ldr	r0, [r4, #0]
 8004dcc:	6813      	ldr	r3, [r2, #0]
 8004dce:	0605      	lsls	r5, r0, #24
 8004dd0:	f103 0104 	add.w	r1, r3, #4
 8004dd4:	d52a      	bpl.n	8004e2c <_printf_i+0xa4>
 8004dd6:	681b      	ldr	r3, [r3, #0]
 8004dd8:	6011      	str	r1, [r2, #0]
 8004dda:	2b00      	cmp	r3, #0
 8004ddc:	da03      	bge.n	8004de6 <_printf_i+0x5e>
 8004dde:	222d      	movs	r2, #45	; 0x2d
 8004de0:	425b      	negs	r3, r3
 8004de2:	f884 2043 	strb.w	r2, [r4, #67]	; 0x43
 8004de6:	486f      	ldr	r0, [pc, #444]	; (8004fa4 <_printf_i+0x21c>)
 8004de8:	220a      	movs	r2, #10
 8004dea:	e039      	b.n	8004e60 <_printf_i+0xd8>
 8004dec:	2973      	cmp	r1, #115	; 0x73
 8004dee:	f000 809d 	beq.w	8004f2c <_printf_i+0x1a4>
 8004df2:	d808      	bhi.n	8004e06 <_printf_i+0x7e>
 8004df4:	296f      	cmp	r1, #111	; 0x6f
 8004df6:	d020      	beq.n	8004e3a <_printf_i+0xb2>
 8004df8:	2970      	cmp	r1, #112	; 0x70
 8004dfa:	d1dd      	bne.n	8004db8 <_printf_i+0x30>
 8004dfc:	6823      	ldr	r3, [r4, #0]
 8004dfe:	f043 0320 	orr.w	r3, r3, #32
 8004e02:	6023      	str	r3, [r4, #0]
 8004e04:	e003      	b.n	8004e0e <_printf_i+0x86>
 8004e06:	2975      	cmp	r1, #117	; 0x75
 8004e08:	d017      	beq.n	8004e3a <_printf_i+0xb2>
 8004e0a:	2978      	cmp	r1, #120	; 0x78
 8004e0c:	d1d4      	bne.n	8004db8 <_printf_i+0x30>
 8004e0e:	2378      	movs	r3, #120	; 0x78
 8004e10:	4865      	ldr	r0, [pc, #404]	; (8004fa8 <_printf_i+0x220>)
 8004e12:	f884 3045 	strb.w	r3, [r4, #69]	; 0x45
 8004e16:	e055      	b.n	8004ec4 <_printf_i+0x13c>
 8004e18:	6813      	ldr	r3, [r2, #0]
 8004e1a:	f104 0542 	add.w	r5, r4, #66	; 0x42
 8004e1e:	1d19      	adds	r1, r3, #4
 8004e20:	681b      	ldr	r3, [r3, #0]
 8004e22:	6011      	str	r1, [r2, #0]
 8004e24:	f884 3042 	strb.w	r3, [r4, #66]	; 0x42
 8004e28:	2301      	movs	r3, #1
 8004e2a:	e08c      	b.n	8004f46 <_printf_i+0x1be>
 8004e2c:	681b      	ldr	r3, [r3, #0]
 8004e2e:	f010 0f40 	tst.w	r0, #64	; 0x40
 8004e32:	6011      	str	r1, [r2, #0]
 8004e34:	bf18      	it	ne
 8004e36:	b21b      	sxthne	r3, r3
 8004e38:	e7cf      	b.n	8004dda <_printf_i+0x52>
 8004e3a:	6813      	ldr	r3, [r2, #0]
 8004e3c:	6825      	ldr	r5, [r4, #0]
 8004e3e:	1d18      	adds	r0, r3, #4
 8004e40:	6010      	str	r0, [r2, #0]
 8004e42:	0628      	lsls	r0, r5, #24
 8004e44:	d501      	bpl.n	8004e4a <_printf_i+0xc2>
 8004e46:	681b      	ldr	r3, [r3, #0]
 8004e48:	e002      	b.n	8004e50 <_printf_i+0xc8>
 8004e4a:	0668      	lsls	r0, r5, #25
 8004e4c:	d5fb      	bpl.n	8004e46 <_printf_i+0xbe>
 8004e4e:	881b      	ldrh	r3, [r3, #0]
 8004e50:	296f      	cmp	r1, #111	; 0x6f
 8004e52:	bf14      	ite	ne
 8004e54:	220a      	movne	r2, #10
 8004e56:	2208      	moveq	r2, #8
 8004e58:	4852      	ldr	r0, [pc, #328]	; (8004fa4 <_printf_i+0x21c>)
 8004e5a:	2100      	movs	r1, #0
 8004e5c:	f884 1043 	strb.w	r1, [r4, #67]	; 0x43
 8004e60:	6865      	ldr	r5, [r4, #4]
 8004e62:	2d00      	cmp	r5, #0
 8004e64:	60a5      	str	r5, [r4, #8]
 8004e66:	f2c0 8095 	blt.w	8004f94 <_printf_i+0x20c>
 8004e6a:	6821      	ldr	r1, [r4, #0]
 8004e6c:	f021 0104 	bic.w	r1, r1, #4
 8004e70:	6021      	str	r1, [r4, #0]
 8004e72:	2b00      	cmp	r3, #0
 8004e74:	d13d      	bne.n	8004ef2 <_printf_i+0x16a>
 8004e76:	2d00      	cmp	r5, #0
 8004e78:	f040 808e 	bne.w	8004f98 <_printf_i+0x210>
 8004e7c:	4665      	mov	r5, ip
 8004e7e:	2a08      	cmp	r2, #8
 8004e80:	d10b      	bne.n	8004e9a <_printf_i+0x112>
 8004e82:	6823      	ldr	r3, [r4, #0]
 8004e84:	07db      	lsls	r3, r3, #31
 8004e86:	d508      	bpl.n	8004e9a <_printf_i+0x112>
 8004e88:	6923      	ldr	r3, [r4, #16]
 8004e8a:	6862      	ldr	r2, [r4, #4]
 8004e8c:	429a      	cmp	r2, r3
 8004e8e:	bfde      	ittt	le
 8004e90:	2330      	movle	r3, #48	; 0x30
 8004e92:	f805 3c01 	strble.w	r3, [r5, #-1]
 8004e96:	f105 35ff 	addle.w	r5, r5, #4294967295
 8004e9a:	ebac 0305 	sub.w	r3, ip, r5
 8004e9e:	6123      	str	r3, [r4, #16]
 8004ea0:	f8cd 8000 	str.w	r8, [sp]
 8004ea4:	463b      	mov	r3, r7
 8004ea6:	aa03      	add	r2, sp, #12
 8004ea8:	4621      	mov	r1, r4
 8004eaa:	4630      	mov	r0, r6
 8004eac:	f7ff fef6 	bl	8004c9c <_printf_common>
 8004eb0:	3001      	adds	r0, #1
 8004eb2:	d14d      	bne.n	8004f50 <_printf_i+0x1c8>
 8004eb4:	f04f 30ff 	mov.w	r0, #4294967295
 8004eb8:	b005      	add	sp, #20
 8004eba:	e8bd 83f0 	ldmia.w	sp!, {r4, r5, r6, r7, r8, r9, pc}
 8004ebe:	4839      	ldr	r0, [pc, #228]	; (8004fa4 <_printf_i+0x21c>)
 8004ec0:	f884 1045 	strb.w	r1, [r4, #69]	; 0x45
 8004ec4:	6813      	ldr	r3, [r2, #0]
 8004ec6:	6821      	ldr	r1, [r4, #0]
 8004ec8:	1d1d      	adds	r5, r3, #4
 8004eca:	681b      	ldr	r3, [r3, #0]
 8004ecc:	6015      	str	r5, [r2, #0]
 8004ece:	060a      	lsls	r2, r1, #24
 8004ed0:	d50b      	bpl.n	8004eea <_printf_i+0x162>
 8004ed2:	07ca      	lsls	r2, r1, #31
 8004ed4:	bf44      	itt	mi
 8004ed6:	f041 0120 	orrmi.w	r1, r1, #32
 8004eda:	6021      	strmi	r1, [r4, #0]
 8004edc:	b91b      	cbnz	r3, 8004ee6 <_printf_i+0x15e>
 8004ede:	6822      	ldr	r2, [r4, #0]
 8004ee0:	f022 0220 	bic.w	r2, r2, #32
 8004ee4:	6022      	str	r2, [r4, #0]
 8004ee6:	2210      	movs	r2, #16
 8004ee8:	e7b7      	b.n	8004e5a <_printf_i+0xd2>
 8004eea:	064d      	lsls	r5, r1, #25
 8004eec:	bf48      	it	mi
 8004eee:	b29b      	uxthmi	r3, r3
 8004ef0:	e7ef      	b.n	8004ed2 <_printf_i+0x14a>
 8004ef2:	4665      	mov	r5, ip
 8004ef4:	fbb3 f1f2 	udiv	r1, r3, r2
 8004ef8:	fb02 3311 	mls	r3, r2, r1, r3
 8004efc:	5cc3      	ldrb	r3, [r0, r3]
 8004efe:	f805 3d01 	strb.w	r3, [r5, #-1]!
 8004f02:	460b      	mov	r3, r1
 8004f04:	2900      	cmp	r1, #0
 8004f06:	d1f5      	bne.n	8004ef4 <_printf_i+0x16c>
 8004f08:	e7b9      	b.n	8004e7e <_printf_i+0xf6>
 8004f0a:	6813      	ldr	r3, [r2, #0]
 8004f0c:	6825      	ldr	r5, [r4, #0]
 8004f0e:	1d18      	adds	r0, r3, #4
 8004f10:	6961      	ldr	r1, [r4, #20]
 8004f12:	6010      	str	r0, [r2, #0]
 8004f14:	0628      	lsls	r0, r5, #24
 8004f16:	681b      	ldr	r3, [r3, #0]
 8004f18:	d501      	bpl.n	8004f1e <_printf_i+0x196>
 8004f1a:	6019      	str	r1, [r3, #0]
 8004f1c:	e002      	b.n	8004f24 <_printf_i+0x19c>
 8004f1e:	066a      	lsls	r2, r5, #25
 8004f20:	d5fb      	bpl.n	8004f1a <_printf_i+0x192>
 8004f22:	8019      	strh	r1, [r3, #0]
 8004f24:	2300      	movs	r3, #0
 8004f26:	4665      	mov	r5, ip
 8004f28:	6123      	str	r3, [r4, #16]
 8004f2a:	e7b9      	b.n	8004ea0 <_printf_i+0x118>
 8004f2c:	6813      	ldr	r3, [r2, #0]
 8004f2e:	1d19      	adds	r1, r3, #4
 8004f30:	6011      	str	r1, [r2, #0]
 8004f32:	681d      	ldr	r5, [r3, #0]
 8004f34:	6862      	ldr	r2, [r4, #4]
 8004f36:	2100      	movs	r1, #0
 8004f38:	4628      	mov	r0, r5
 8004f3a:	f000 f837 	bl	8004fac <memchr>
 8004f3e:	b108      	cbz	r0, 8004f44 <_printf_i+0x1bc>
 8004f40:	1b40      	subs	r0, r0, r5
 8004f42:	6060      	str	r0, [r4, #4]
 8004f44:	6863      	ldr	r3, [r4, #4]
 8004f46:	6123      	str	r3, [r4, #16]
 8004f48:	2300      	movs	r3, #0
 8004f4a:	f884 3043 	strb.w	r3, [r4, #67]	; 0x43
 8004f4e:	e7a7      	b.n	8004ea0 <_printf_i+0x118>
 8004f50:	6923      	ldr	r3, [r4, #16]
 8004f52:	462a      	mov	r2, r5
 8004f54:	4639      	mov	r1, r7
 8004f56:	4630      	mov	r0, r6
 8004f58:	47c0      	blx	r8
 8004f5a:	3001      	adds	r0, #1
 8004f5c:	d0aa      	beq.n	8004eb4 <_printf_i+0x12c>
 8004f5e:	6823      	ldr	r3, [r4, #0]
 8004f60:	079b      	lsls	r3, r3, #30
 8004f62:	d413      	bmi.n	8004f8c <_printf_i+0x204>
 8004f64:	68e0      	ldr	r0, [r4, #12]
 8004f66:	9b03      	ldr	r3, [sp, #12]
 8004f68:	4298      	cmp	r0, r3
 8004f6a:	bfb8      	it	lt
 8004f6c:	4618      	movlt	r0, r3
 8004f6e:	e7a3      	b.n	8004eb8 <_printf_i+0x130>
 8004f70:	2301      	movs	r3, #1
 8004f72:	464a      	mov	r2, r9
 8004f74:	4639      	mov	r1, r7
 8004f76:	4630      	mov	r0, r6
 8004f78:	47c0      	blx	r8
 8004f7a:	3001      	adds	r0, #1
 8004f7c:	d09a      	beq.n	8004eb4 <_printf_i+0x12c>
 8004f7e:	3501      	adds	r5, #1
 8004f80:	68e3      	ldr	r3, [r4, #12]
 8004f82:	9a03      	ldr	r2, [sp, #12]
 8004f84:	1a9b      	subs	r3, r3, r2
 8004f86:	42ab      	cmp	r3, r5
 8004f88:	dcf2      	bgt.n	8004f70 <_printf_i+0x1e8>
 8004f8a:	e7eb      	b.n	8004f64 <_printf_i+0x1dc>
 8004f8c:	2500      	movs	r5, #0
 8004f8e:	f104 0919 	add.w	r9, r4, #25
 8004f92:	e7f5      	b.n	8004f80 <_printf_i+0x1f8>
 8004f94:	2b00      	cmp	r3, #0
 8004f96:	d1ac      	bne.n	8004ef2 <_printf_i+0x16a>
 8004f98:	7803      	ldrb	r3, [r0, #0]
 8004f9a:	f104 0542 	add.w	r5, r4, #66	; 0x42
 8004f9e:	f884 3042 	strb.w	r3, [r4, #66]	; 0x42
 8004fa2:	e76c      	b.n	8004e7e <_printf_i+0xf6>
 8004fa4:	08005451 	.word	0x08005451
 8004fa8:	08005462 	.word	0x08005462

08004fac <memchr>:
 8004fac:	b510      	push	{r4, lr}
 8004fae:	b2c9      	uxtb	r1, r1
 8004fb0:	4402      	add	r2, r0
 8004fb2:	4290      	cmp	r0, r2
 8004fb4:	4603      	mov	r3, r0
 8004fb6:	d101      	bne.n	8004fbc <memchr+0x10>
 8004fb8:	2300      	movs	r3, #0
 8004fba:	e003      	b.n	8004fc4 <memchr+0x18>
 8004fbc:	781c      	ldrb	r4, [r3, #0]
 8004fbe:	3001      	adds	r0, #1
 8004fc0:	428c      	cmp	r4, r1
 8004fc2:	d1f6      	bne.n	8004fb2 <memchr+0x6>
 8004fc4:	4618      	mov	r0, r3
 8004fc6:	bd10      	pop	{r4, pc}

08004fc8 <memmove>:
 8004fc8:	4288      	cmp	r0, r1
 8004fca:	b510      	push	{r4, lr}
 8004fcc:	eb01 0302 	add.w	r3, r1, r2
 8004fd0:	d807      	bhi.n	8004fe2 <memmove+0x1a>
 8004fd2:	1e42      	subs	r2, r0, #1
 8004fd4:	4299      	cmp	r1, r3
 8004fd6:	d00a      	beq.n	8004fee <memmove+0x26>
 8004fd8:	f811 4b01 	ldrb.w	r4, [r1], #1
 8004fdc:	f802 4f01 	strb.w	r4, [r2, #1]!
 8004fe0:	e7f8      	b.n	8004fd4 <memmove+0xc>
 8004fe2:	4283      	cmp	r3, r0
 8004fe4:	d9f5      	bls.n	8004fd2 <memmove+0xa>
 8004fe6:	1881      	adds	r1, r0, r2
 8004fe8:	1ad2      	subs	r2, r2, r3
 8004fea:	42d3      	cmn	r3, r2
 8004fec:	d100      	bne.n	8004ff0 <memmove+0x28>
 8004fee:	bd10      	pop	{r4, pc}
 8004ff0:	f813 4d01 	ldrb.w	r4, [r3, #-1]!
 8004ff4:	f801 4d01 	strb.w	r4, [r1, #-1]!
 8004ff8:	e7f7      	b.n	8004fea <memmove+0x22>
	...

08004ffc <_free_r>:
 8004ffc:	b538      	push	{r3, r4, r5, lr}
 8004ffe:	4605      	mov	r5, r0
 8005000:	2900      	cmp	r1, #0
 8005002:	d043      	beq.n	800508c <_free_r+0x90>
 8005004:	f851 3c04 	ldr.w	r3, [r1, #-4]
 8005008:	1f0c      	subs	r4, r1, #4
 800500a:	2b00      	cmp	r3, #0
 800500c:	bfb8      	it	lt
 800500e:	18e4      	addlt	r4, r4, r3
 8005010:	f000 f8d0 	bl	80051b4 <__malloc_lock>
 8005014:	4a1e      	ldr	r2, [pc, #120]	; (8005090 <_free_r+0x94>)
 8005016:	6813      	ldr	r3, [r2, #0]
 8005018:	4610      	mov	r0, r2
 800501a:	b933      	cbnz	r3, 800502a <_free_r+0x2e>
 800501c:	6063      	str	r3, [r4, #4]
 800501e:	6014      	str	r4, [r2, #0]
 8005020:	4628      	mov	r0, r5
 8005022:	e8bd 4038 	ldmia.w	sp!, {r3, r4, r5, lr}
 8005026:	f000 b8c6 	b.w	80051b6 <__malloc_unlock>
 800502a:	42a3      	cmp	r3, r4
 800502c:	d90b      	bls.n	8005046 <_free_r+0x4a>
 800502e:	6821      	ldr	r1, [r4, #0]
 8005030:	1862      	adds	r2, r4, r1
 8005032:	4293      	cmp	r3, r2
 8005034:	bf01      	itttt	eq
 8005036:	681a      	ldreq	r2, [r3, #0]
 8005038:	685b      	ldreq	r3, [r3, #4]
 800503a:	1852      	addeq	r2, r2, r1
 800503c:	6022      	streq	r2, [r4, #0]
 800503e:	6063      	str	r3, [r4, #4]
 8005040:	6004      	str	r4, [r0, #0]
 8005042:	e7ed      	b.n	8005020 <_free_r+0x24>
 8005044:	4613      	mov	r3, r2
 8005046:	685a      	ldr	r2, [r3, #4]
 8005048:	b10a      	cbz	r2, 800504e <_free_r+0x52>
 800504a:	42a2      	cmp	r2, r4
 800504c:	d9fa      	bls.n	8005044 <_free_r+0x48>
 800504e:	6819      	ldr	r1, [r3, #0]
 8005050:	1858      	adds	r0, r3, r1
 8005052:	42a0      	cmp	r0, r4
 8005054:	d10b      	bne.n	800506e <_free_r+0x72>
 8005056:	6820      	ldr	r0, [r4, #0]
 8005058:	4401      	add	r1, r0
 800505a:	1858      	adds	r0, r3, r1
 800505c:	4282      	cmp	r2, r0
 800505e:	6019      	str	r1, [r3, #0]
 8005060:	d1de      	bne.n	8005020 <_free_r+0x24>
 8005062:	6810      	ldr	r0, [r2, #0]
 8005064:	6852      	ldr	r2, [r2, #4]
 8005066:	4401      	add	r1, r0
 8005068:	6019      	str	r1, [r3, #0]
 800506a:	605a      	str	r2, [r3, #4]
 800506c:	e7d8      	b.n	8005020 <_free_r+0x24>
 800506e:	d902      	bls.n	8005076 <_free_r+0x7a>
 8005070:	230c      	movs	r3, #12
 8005072:	602b      	str	r3, [r5, #0]
 8005074:	e7d4      	b.n	8005020 <_free_r+0x24>
 8005076:	6820      	ldr	r0, [r4, #0]
 8005078:	1821      	adds	r1, r4, r0
 800507a:	428a      	cmp	r2, r1
 800507c:	bf01      	itttt	eq
 800507e:	6811      	ldreq	r1, [r2, #0]
 8005080:	6852      	ldreq	r2, [r2, #4]
 8005082:	1809      	addeq	r1, r1, r0
 8005084:	6021      	streq	r1, [r4, #0]
 8005086:	6062      	str	r2, [r4, #4]
 8005088:	605c      	str	r4, [r3, #4]
 800508a:	e7c9      	b.n	8005020 <_free_r+0x24>
 800508c:	bd38      	pop	{r3, r4, r5, pc}
 800508e:	bf00      	nop
 8005090:	20001cb0 	.word	0x20001cb0

08005094 <_malloc_r>:
 8005094:	b570      	push	{r4, r5, r6, lr}
 8005096:	1ccd      	adds	r5, r1, #3
 8005098:	f025 0503 	bic.w	r5, r5, #3
 800509c:	3508      	adds	r5, #8
 800509e:	2d0c      	cmp	r5, #12
 80050a0:	bf38      	it	cc
 80050a2:	250c      	movcc	r5, #12
 80050a4:	2d00      	cmp	r5, #0
 80050a6:	4606      	mov	r6, r0
 80050a8:	db01      	blt.n	80050ae <_malloc_r+0x1a>
 80050aa:	42a9      	cmp	r1, r5
 80050ac:	d903      	bls.n	80050b6 <_malloc_r+0x22>
 80050ae:	230c      	movs	r3, #12
 80050b0:	6033      	str	r3, [r6, #0]
 80050b2:	2000      	movs	r0, #0
 80050b4:	bd70      	pop	{r4, r5, r6, pc}
 80050b6:	f000 f87d 	bl	80051b4 <__malloc_lock>
 80050ba:	4a21      	ldr	r2, [pc, #132]	; (8005140 <_malloc_r+0xac>)
 80050bc:	6814      	ldr	r4, [r2, #0]
 80050be:	4621      	mov	r1, r4
 80050c0:	b991      	cbnz	r1, 80050e8 <_malloc_r+0x54>
 80050c2:	4c20      	ldr	r4, [pc, #128]	; (8005144 <_malloc_r+0xb0>)
 80050c4:	6823      	ldr	r3, [r4, #0]
 80050c6:	b91b      	cbnz	r3, 80050d0 <_malloc_r+0x3c>
 80050c8:	4630      	mov	r0, r6
 80050ca:	f000 f863 	bl	8005194 <_sbrk_r>
 80050ce:	6020      	str	r0, [r4, #0]
 80050d0:	4629      	mov	r1, r5
 80050d2:	4630      	mov	r0, r6
 80050d4:	f000 f85e 	bl	8005194 <_sbrk_r>
 80050d8:	1c43      	adds	r3, r0, #1
 80050da:	d124      	bne.n	8005126 <_malloc_r+0x92>
 80050dc:	230c      	movs	r3, #12
 80050de:	4630      	mov	r0, r6
 80050e0:	6033      	str	r3, [r6, #0]
 80050e2:	f000 f868 	bl	80051b6 <__malloc_unlock>
 80050e6:	e7e4      	b.n	80050b2 <_malloc_r+0x1e>
 80050e8:	680b      	ldr	r3, [r1, #0]
 80050ea:	1b5b      	subs	r3, r3, r5
 80050ec:	d418      	bmi.n	8005120 <_malloc_r+0x8c>
 80050ee:	2b0b      	cmp	r3, #11
 80050f0:	d90f      	bls.n	8005112 <_malloc_r+0x7e>
 80050f2:	600b      	str	r3, [r1, #0]
 80050f4:	18cc      	adds	r4, r1, r3
 80050f6:	50cd      	str	r5, [r1, r3]
 80050f8:	4630      	mov	r0, r6
 80050fa:	f000 f85c 	bl	80051b6 <__malloc_unlock>
 80050fe:	f104 000b 	add.w	r0, r4, #11
 8005102:	1d23      	adds	r3, r4, #4
 8005104:	f020 0007 	bic.w	r0, r0, #7
 8005108:	1ac3      	subs	r3, r0, r3
 800510a:	d0d3      	beq.n	80050b4 <_malloc_r+0x20>
 800510c:	425a      	negs	r2, r3
 800510e:	50e2      	str	r2, [r4, r3]
 8005110:	e7d0      	b.n	80050b4 <_malloc_r+0x20>
 8005112:	684b      	ldr	r3, [r1, #4]
 8005114:	428c      	cmp	r4, r1
 8005116:	bf16      	itet	ne
 8005118:	6063      	strne	r3, [r4, #4]
 800511a:	6013      	streq	r3, [r2, #0]
 800511c:	460c      	movne	r4, r1
 800511e:	e7eb      	b.n	80050f8 <_malloc_r+0x64>
 8005120:	460c      	mov	r4, r1
 8005122:	6849      	ldr	r1, [r1, #4]
 8005124:	e7cc      	b.n	80050c0 <_malloc_r+0x2c>
 8005126:	1cc4      	adds	r4, r0, #3
 8005128:	f024 0403 	bic.w	r4, r4, #3
 800512c:	42a0      	cmp	r0, r4
 800512e:	d005      	beq.n	800513c <_malloc_r+0xa8>
 8005130:	1a21      	subs	r1, r4, r0
 8005132:	4630      	mov	r0, r6
 8005134:	f000 f82e 	bl	8005194 <_sbrk_r>
 8005138:	3001      	adds	r0, #1
 800513a:	d0cf      	beq.n	80050dc <_malloc_r+0x48>
 800513c:	6025      	str	r5, [r4, #0]
 800513e:	e7db      	b.n	80050f8 <_malloc_r+0x64>
 8005140:	20001cb0 	.word	0x20001cb0
 8005144:	20001cb4 	.word	0x20001cb4

08005148 <_realloc_r>:
 8005148:	b5f8      	push	{r3, r4, r5, r6, r7, lr}
 800514a:	4607      	mov	r7, r0
 800514c:	4614      	mov	r4, r2
 800514e:	460e      	mov	r6, r1
 8005150:	b921      	cbnz	r1, 800515c <_realloc_r+0x14>
 8005152:	e8bd 40f8 	ldmia.w	sp!, {r3, r4, r5, r6, r7, lr}
 8005156:	4611      	mov	r1, r2
 8005158:	f7ff bf9c 	b.w	8005094 <_malloc_r>
 800515c:	b922      	cbnz	r2, 8005168 <_realloc_r+0x20>
 800515e:	f7ff ff4d 	bl	8004ffc <_free_r>
 8005162:	4625      	mov	r5, r4
 8005164:	4628      	mov	r0, r5
 8005166:	bdf8      	pop	{r3, r4, r5, r6, r7, pc}
 8005168:	f000 f826 	bl	80051b8 <_malloc_usable_size_r>
 800516c:	42a0      	cmp	r0, r4
 800516e:	d20f      	bcs.n	8005190 <_realloc_r+0x48>
 8005170:	4621      	mov	r1, r4
 8005172:	4638      	mov	r0, r7
 8005174:	f7ff ff8e 	bl	8005094 <_malloc_r>
 8005178:	4605      	mov	r5, r0
 800517a:	2800      	cmp	r0, #0
 800517c:	d0f2      	beq.n	8005164 <_realloc_r+0x1c>
 800517e:	4631      	mov	r1, r6
 8005180:	4622      	mov	r2, r4
 8005182:	f7ff fc05 	bl	8004990 <memcpy>
 8005186:	4631      	mov	r1, r6
 8005188:	4638      	mov	r0, r7
 800518a:	f7ff ff37 	bl	8004ffc <_free_r>
 800518e:	e7e9      	b.n	8005164 <_realloc_r+0x1c>
 8005190:	4635      	mov	r5, r6
 8005192:	e7e7      	b.n	8005164 <_realloc_r+0x1c>

08005194 <_sbrk_r>:
 8005194:	b538      	push	{r3, r4, r5, lr}
 8005196:	2300      	movs	r3, #0
 8005198:	4c05      	ldr	r4, [pc, #20]	; (80051b0 <_sbrk_r+0x1c>)
 800519a:	4605      	mov	r5, r0
 800519c:	4608      	mov	r0, r1
 800519e:	6023      	str	r3, [r4, #0]
 80051a0:	f7fb fcb0 	bl	8000b04 <_sbrk>
 80051a4:	1c43      	adds	r3, r0, #1
 80051a6:	d102      	bne.n	80051ae <_sbrk_r+0x1a>
 80051a8:	6823      	ldr	r3, [r4, #0]
 80051aa:	b103      	cbz	r3, 80051ae <_sbrk_r+0x1a>
 80051ac:	602b      	str	r3, [r5, #0]
 80051ae:	bd38      	pop	{r3, r4, r5, pc}
 80051b0:	20001db0 	.word	0x20001db0

080051b4 <__malloc_lock>:
 80051b4:	4770      	bx	lr

080051b6 <__malloc_unlock>:
 80051b6:	4770      	bx	lr

080051b8 <_malloc_usable_size_r>:
 80051b8:	f851 3c04 	ldr.w	r3, [r1, #-4]
 80051bc:	1f18      	subs	r0, r3, #4
 80051be:	2b00      	cmp	r3, #0
 80051c0:	bfbc      	itt	lt
 80051c2:	580b      	ldrlt	r3, [r1, r0]
 80051c4:	18c0      	addlt	r0, r0, r3
 80051c6:	4770      	bx	lr

080051c8 <_init>:
 80051c8:	b5f8      	push	{r3, r4, r5, r6, r7, lr}
 80051ca:	bf00      	nop
 80051cc:	bcf8      	pop	{r3, r4, r5, r6, r7}
 80051ce:	bc08      	pop	{r3}
 80051d0:	469e      	mov	lr, r3
 80051d2:	4770      	bx	lr

080051d4 <_fini>:
 80051d4:	b5f8      	push	{r3, r4, r5, r6, r7, lr}
 80051d6:	bf00      	nop
 80051d8:	bcf8      	pop	{r3, r4, r5, r6, r7}
 80051da:	bc08      	pop	{r3}
 80051dc:	469e      	mov	lr, r3
 80051de:	4770      	bx	lr
